ccopy_reg
_reconstructor
p0
(ccom_github_MitjaNemec_SaveRestoreLayout.save_restore_layout
LayoutData
p1
c__builtin__
tuple
p2
(V1.1.11
p3
V(kicad_pcb (version 20211014) (generator pcbnew)\u000d\u000a\u000d\u000a  (general\u000d\u000a    (thickness 1.6)\u000d\u000a  )\u000d\u000a\u000d\u000a  (paper "A4")\u000d\u000a  (layers\u000d\u000a    (0 "F.Cu" signal)\u000d\u000a    (31 "B.Cu" signal)\u000d\u000a    (32 "B.Adhes" user "B.Adhesive")\u000d\u000a    (33 "F.Adhes" user "F.Adhesive")\u000d\u000a    (34 "B.Paste" user)\u000d\u000a    (35 "F.Paste" user)\u000d\u000a    (36 "B.SilkS" user "B.Silkscreen")\u000d\u000a    (37 "F.SilkS" user "F.Silkscreen")\u000d\u000a    (38 "B.Mask" user)\u000d\u000a    (39 "F.Mask" user)\u000d\u000a    (40 "Dwgs.User" user "User.Drawings")\u000d\u000a    (41 "Cmts.User" user "User.Comments")\u000d\u000a    (42 "Eco1.User" user "User.Eco1")\u000d\u000a    (43 "Eco2.User" user "User.Eco2")\u000d\u000a    (44 "Edge.Cuts" user)\u000d\u000a    (45 "Margin" user)\u000d\u000a    (46 "B.CrtYd" user "B.Courtyard")\u000d\u000a    (47 "F.CrtYd" user "F.Courtyard")\u000d\u000a    (48 "B.Fab" user)\u000d\u000a    (49 "F.Fab" user)\u000d\u000a    (50 "User.1" user)\u000d\u000a    (51 "User.2" user)\u000d\u000a    (52 "User.3" user)\u000d\u000a    (53 "User.4" user)\u000d\u000a    (54 "User.5" user)\u000d\u000a    (55 "User.6" user)\u000d\u000a    (56 "User.7" user)\u000d\u000a    (57 "User.8" user)\u000d\u000a    (58 "User.9" user)\u000d\u000a  )\u000d\u000a\u000d\u000a  (setup\u000d\u000a    (pad_to_mask_clearance 0)\u000d\u000a    (pcbplotparams\u000d\u000a      (layerselection 0x00010fc_ffffffff)\u000d\u000a      (disableapertmacros false)\u000d\u000a      (usegerberextensions false)\u000d\u000a      (usegerberattributes true)\u000d\u000a      (usegerberadvancedattributes true)\u000d\u000a      (creategerberjobfile true)\u000d\u000a      (svguseinch false)\u000d\u000a      (svgprecision 6)\u000d\u000a      (excludeedgelayer true)\u000d\u000a      (plotframeref false)\u000d\u000a      (viasonmask false)\u000d\u000a      (mode 1)\u000d\u000a      (useauxorigin false)\u000d\u000a      (hpglpennumber 1)\u000d\u000a      (hpglpenspeed 20)\u000d\u000a      (hpglpendiameter 15.000000)\u000d\u000a      (dxfpolygonmode true)\u000d\u000a      (dxfimperialunits true)\u000d\u000a      (dxfusepcbnewfont true)\u000d\u000a      (psnegative false)\u000d\u000a      (psa4output false)\u000d\u000a      (plotreference true)\u000d\u000a      (plotvalue true)\u000d\u000a      (plotinvisibletext false)\u000d\u000a      (sketchpadsonfab false)\u000d\u000a      (subtractmaskfromsilk false)\u000d\u000a      (outputformat 1)\u000d\u000a      (mirror false)\u000d\u000a      (drillshape 1)\u000d\u000a      (scaleselection 1)\u000d\u000a      (outputdirectory "")\u000d\u000a    )\u000d\u000a  )\u000d\u000a\u000d\u000a  (net 0 "")\u000d\u000a  (net 1 "GND")\u000d\u000a  (net 2 "+5V")\u000d\u000a  (net 3 "Net-(C3-Pad1)")\u000d\u000a  (net 4 "SCL")\u000d\u000a  (net 5 "SDA")\u000d\u000a  (net 6 "Net-(Q3-Pad1)")\u000d\u000a  (net 7 "Net-(Q3-Pad2)")\u000d\u000a  (net 8 "Net-(Q4-Pad1)")\u000d\u000a  (net 9 "Net-(Q4-Pad2)")\u000d\u000a  (net 10 "Net-(R7-Pad2)")\u000d\u000a  (net 11 "Net-(R9-Pad2)")\u000d\u000a  (net 12 "Net-(R10-Pad1)")\u000d\u000a  (net 13 "Net-(U6-Pad1)")\u000d\u000a  (net 14 "Net-(U6-Pad2)")\u000d\u000a  (net 15 "Net-(U6-Pad4)")\u000d\u000a  (net 16 "Net-(U6-Pad5)")\u000d\u000a  (net 17 "Net-(U6-Pad6)")\u000d\u000a  (net 18 "Net-(U6-Pad7)")\u000d\u000a  (net 19 "Net-(U6-Pad9)")\u000d\u000a  (net 20 "Net-(U6-Pad10)")\u000d\u000a  (net 21 "Net-(U10-Pad1)")\u000d\u000a  (net 22 "Net-(U10-Pad2)")\u000d\u000a  (net 23 "Net-(U10-Pad4)")\u000d\u000a  (net 24 "Net-(U10-Pad5)")\u000d\u000a  (net 25 "Net-(U10-Pad6)")\u000d\u000a  (net 26 "Net-(U10-Pad7)")\u000d\u000a  (net 27 "Net-(U10-Pad9)")\u000d\u000a  (net 28 "Net-(U10-Pad10)")\u000d\u000a\u000d\u000a  (footprint "Resistor_SMD:R_0805_2012Metric" (layer "F.Cu")\u000d\u000a    (tedit 5F68FEEE) (tstamp 1ba3e338-9465-4844-8361-6715d7885c15)\u000d\u000a    (at 88.816272 38.5064 -90)\u000d\u000a    (descr "Resistor SMD 0805 (2012 Metric), square (rectangular) end terminal, IPC_7351 nominal, (Body size source: IPC-SM-782 page 72, https://www.pcb-3d.com/wordpress/wp-content/uploads/ipc-sm-782a_amendment_1_and_2.pdf), generated with kicad-footprint-generator")\u000d\u000a    (tags "resistor")\u000d\u000a    (property "Sheetfile" "LED_Display_Module.kicad_sch")\u000d\u000a    (property "Sheetname" "LED_Display_Module1")\u000d\u000a    (path "/0ae7d831-a065-4601-9f9d-c26d40fd3d00/8ae0dc20-fc0e-4f2c-b6ca-73cb1a74ed93")\u000d\u000a    (attr smd)\u000d\u000a    (fp_text reference "R8" (at 0 -1.65 90) (layer "F.SilkS")\u000d\u000a      (effects (font (size 1 1) (thickness 0.15)))\u000d\u000a      (tstamp dd01ca49-c8a2-4580-af9a-2e9bce9769bc)\u000d\u000a    )\u000d\u000a    (fp_text value "5k" (at 0 1.65 90) (layer "F.Fab")\u000d\u000a      (effects (font (size 1 1) (thickness 0.15)))\u000d\u000a      (tstamp 1d801ac4-6429-45d9-ad70-9dd82bd9c030)\u000d\u000a    )\u000d\u000a    (fp_text user "${REFERENCE}" (at 0 0) (layer "F.Fab")\u000d\u000a      (effects (font (size 0.5 0.5) (thickness 0.08)))\u000d\u000a      (tstamp 1bb16fed-1537-47fa-90f6-8dc136da5d16)\u000d\u000a    )\u000d\u000a    (fp_line (start -0.227064 0.735) (end 0.227064 0.735) (layer "F.SilkS") (width 0.12) (tstamp 3785b88e-f652-4024-afb0-be4c22cdaea8))\u000d\u000a    (fp_line (start -0.227064 -0.735) (end 0.227064 -0.735) (layer "F.SilkS") (width 0.12) (tstamp e73ef891-c9f9-42ab-894b-b2580ee0b0a1))\u000d\u000a    (fp_line (start -1.68 0.95) (end -1.68 -0.95) (layer "F.CrtYd") (width 0.05) (tstamp 0fffb828-f291-41d3-a83c-4eaa3df13f3a))\u000d\u000a    (fp_line (start 1.68 0.95) (end -1.68 0.95) (layer "F.CrtYd") (width 0.05) (tstamp 45245258-c97a-4586-bc43-2154c85c0ef6))\u000d\u000a    (fp_line (start 1.68 -0.95) (end 1.68 0.95) (layer "F.CrtYd") (width 0.05) (tstamp 72733f59-fc61-4ff2-8fe5-0440be71758a))\u000d\u000a    (fp_line (start -1.68 -0.95) (end 1.68 -0.95) (layer "F.CrtYd") (width 0.05) (tstamp f8e927af-4836-4b0f-8a57-dbca5a18a442))\u000d\u000a    (fp_line (start 1 -0.625) (end 1 0.625) (layer "F.Fab") (width 0.1) (tstamp 1d6c2d6c-bee0-401d-9749-98f17833afdd))\u000d\u000a    (fp_line (start -1 -0.625) (end 1 -0.625) (layer "F.Fab") (width 0.1) (tstamp 5da06777-0696-4bb2-8c9a-78c96b4b3e90))\u000d\u000a    (fp_line (start -1 0.625) (end -1 -0.625) (layer "F.Fab") (width 0.1) (tstamp a4971cc2-2bc0-4979-86df-10f6aaaa3b65))\u000d\u000a    (fp_line (start 1 0.625) (end -1 0.625) (layer "F.Fab") (width 0.1) (tstamp e6235600-87cc-4c82-b15f-34fb66b9bf0e))\u000d\u000a    (pad "1" smd roundrect locked (at -0.9125 0 270) (size 1.025 1.4) (layers "F.Cu" "F.Paste" "F.Mask") (roundrect_rratio 0.243902)\u000d\u000a      (net 10 "Net-(R7-Pad2)") (pintype "passive") (tstamp ec1ade12-3e4c-4517-be56-01c5cfbeed11))\u000d\u000a    (pad "2" smd roundrect locked (at 0.9125 0 270) (size 1.025 1.4) (layers "F.Cu" "F.Paste" "F.Mask") (roundrect_rratio 0.243902)\u000d\u000a      (net 1 "GND") (pintype "passive") (tstamp 064853d1-fee5-4dc2-a187-8cbdd26d3919))\u000d\u000a    (model "${KICAD6_3DMODEL_DIR}/Resistor_SMD.3dshapes/R_0805_2012Metric.wrl"\u000d\u000a      (offset (xyz 0 0 0))\u000d\u000a      (scale (xyz 1 1 1))\u000d\u000a      (rotate (xyz 0 0 0))\u000d\u000a    )\u000d\u000a  )\u000d\u000a\u000d\u000a  (footprint "Capacitor_SMD:C_0805_2012Metric" (layer "F.Cu")\u000d\u000a    (tedit 5F68FEEE) (tstamp 27e3c71f-5a63-4710-8adf-b600b805ce02)\u000d\u000a    (at 90.695872 20.574 180)\u000d\u000a    (descr "Capacitor SMD 0805 (2012 Metric), square (rectangular) end terminal, IPC_7351 nominal, (Body size source: IPC-SM-782 page 76, https://www.pcb-3d.com/wordpress/wp-content/uploads/ipc-sm-782a_amendment_1_and_2.pdf, https://docs.google.com/spreadsheets/d/1BsfQQcO9C6DZCsRaXUlFlo91Tg2WpOkGARC1WS5S8t0/edit?usp=sharing), generated with kicad-footprint-generator")\u000d\u000a    (tags "capacitor")\u000d\u000a    (property "Sheetfile" "LED_Display_Module.kicad_sch")\u000d\u000a    (property "Sheetname" "LED_Display_Module1")\u000d\u000a    (path "/0ae7d831-a065-4601-9f9d-c26d40fd3d00/366a3063-3e08-4768-96ad-312b919ee5ec")\u000d\u000a    (attr smd)\u000d\u000a    (fp_text reference "C4" (at 0 -1.68) (layer "F.SilkS")\u000d\u000a      (effects (font (size 1 1) (thickness 0.15)))\u000d\u000a      (tstamp 8aa8d47e-f495-4049-8ac9-7f2ac3205412)\u000d\u000a    )\u000d\u000a    (fp_text value "100n" (at 0 1.68) (layer "F.Fab")\u000d\u000a      (effects (font (size 1 1) (thickness 0.15)))\u000d\u000a      (tstamp 47957453-fce7-4d98-833c-e34bb8a852a5)\u000d\u000a    )\u000d\u000a    (fp_text user "${REFERENCE}" (at 0 0) (layer "F.Fab")\u000d\u000a      (effects (font (size 0.5 0.5) (thickness 0.08)))\u000d\u000a      (tstamp 2ba21493-929b-4122-ac0f-7aeaf8602cef)\u000d\u000a    )\u000d\u000a    (fp_line (start -0.261252 0.735) (end 0.261252 0.735) (layer "F.SilkS") (width 0.12) (tstamp 5fba7ff8-02f1-4ac0-93c4-5bd7becbcf63))\u000d\u000a    (fp_line (start -0.261252 -0.735) (end 0.261252 -0.735) (layer "F.SilkS") (width 0.12) (tstamp 9c2a29da-c83f-4ec8-bbcf-9d775812af04))\u000d\u000a    (fp_line (start -1.7 0.98) (end -1.7 -0.98) (layer "F.CrtYd") (width 0.05) (tstamp 3dbc1b14-20e2-4dcb-8347-d33c13d3f0e0))\u000d\u000a    (fp_line (start -1.7 -0.98) (end 1.7 -0.98) (layer "F.CrtYd") (width 0.05) (tstamp 4b534cd1-c414-4029-9164-e46766faf60e))\u000d\u000a    (fp_line (start 1.7 0.98) (end -1.7 0.98) (layer "F.CrtYd") (width 0.05) (tstamp 60960af7-b938-44a8-82b5-e9c36f2e6817))\u000d\u000a    (fp_line (start 1.7 -0.98) (end 1.7 0.98) (layer "F.CrtYd") (width 0.05) (tstamp d33c6077-a8ec-48ca-b0e0-97f3539ef54c))\u000d\u000a    (fp_line (start 1 0.625) (end -1 0.625) (layer "F.Fab") (width 0.1) (tstamp 19a5aacd-255a-4bf3-89c1-efd2ab61016c))\u000d\u000a    (fp_line (start -1 -0.625) (end 1 -0.625) (layer "F.Fab") (width 0.1) (tstamp 8fbab3d0-cb5e-47c7-8764-6fa3c0e4e5f7))\u000d\u000a    (fp_line (start 1 -0.625) (end 1 0.625) (layer "F.Fab") (width 0.1) (tstamp a25ec672-f935-4d0c-ae67-7c3ebe078d85))\u000d\u000a    (fp_line (start -1 0.625) (end -1 -0.625) (layer "F.Fab") (width 0.1) (tstamp ce3f834f-337d-4957-8d02-e900d7024614))\u000d\u000a    (pad "1" smd roundrect locked (at -0.95 0 180) (size 1 1.45) (layers "F.Cu" "F.Paste" "F.Mask") (roundrect_rratio 0.25)\u000d\u000a      (net 2 "+5V") (pintype "passive") (tstamp f8e92727-5789-4ef6-9dc3-be888ad72e45))\u000d\u000a    (pad "2" smd roundrect locked (at 0.95 0 180) (size 1 1.45) (layers "F.Cu" "F.Paste" "F.Mask") (roundrect_rratio 0.25)\u000d\u000a      (net 1 "GND") (pintype "passive") (tstamp 4be2b882-65e4-4552-9482-9d622928de2f))\u000d\u000a    (model "${KICAD6_3DMODEL_DIR}/Capacitor_SMD.3dshapes/C_0805_2012Metric.wrl"\u000d\u000a      (offset (xyz 0 0 0))\u000d\u000a      (scale (xyz 1 1 1))\u000d\u000a      (rotate (xyz 0 0 0))\u000d\u000a    )\u000d\u000a  )\u000d\u000a\u000d\u000a  (footprint "Resistor_SMD:R_0805_2012Metric" (layer "F.Cu")\u000d\u000a    (tedit 5F68FEEE) (tstamp 4687c479-536f-4d7c-9d3c-04c9b426c43c)\u000d\u000a    (at 90.797472 38.5064 90)\u000d\u000a    (descr "Resistor SMD 0805 (2012 Metric), square (rectangular) end terminal, IPC_7351 nominal, (Body size source: IPC-SM-782 page 72, https://www.pcb-3d.com/wordpress/wp-content/uploads/ipc-sm-782a_amendment_1_and_2.pdf), generated with kicad-footprint-generator")\u000d\u000a    (tags "resistor")\u000d\u000a    (property "Sheetfile" "LED_Display_Module.kicad_sch")\u000d\u000a    (property "Sheetname" "LED_Display_Module1")\u000d\u000a    (path "/0ae7d831-a065-4601-9f9d-c26d40fd3d00/bf366dff-e9f9-423e-a52a-219a6b1b8be5")\u000d\u000a    (attr smd)\u000d\u000a    (fp_text reference "R7" (at 0 -1.65 90) (layer "F.SilkS")\u000d\u000a      (effects (font (size 1 1) (thickness 0.15)))\u000d\u000a      (tstamp fc329e60-968a-4f61-ba77-53d29ff8c1c7)\u000d\u000a    )\u000d\u000a    (fp_text value "7.5k" (at 0 1.65 90) (layer "F.Fab")\u000d\u000a      (effects (font (size 1 1) (thickness 0.15)))\u000d\u000a      (tstamp 9cab0c4e-2726-433f-a46f-c25156ae2489)\u000d\u000a    )\u000d\u000a    (fp_text user "${REFERENCE}" (at 0 0 90) (layer "F.Fab")\u000d\u000a      (effects (font (size 0.5 0.5) (thickness 0.08)))\u000d\u000a      (tstamp 0d7333ca-0587-43cb-9af7-f59016c85820)\u000d\u000a    )\u000d\u000a    (fp_line (start -0.227064 -0.735) (end 0.227064 -0.735) (layer "F.SilkS") (width 0.12) (tstamp 825ca21e-b6a1-4e84-a612-f8e2fae8ac04))\u000d\u000a    (fp_line (start -0.227064 0.735) (end 0.227064 0.735) (layer "F.SilkS") (width 0.12) (tstamp f8db64f8-1695-46e3-9667-49f16b5c734b))\u000d\u000a    (fp_line (start -1.68 -0.95) (end 1.68 -0.95) (layer "F.CrtYd") (width 0.05) (tstamp 2f122013-8dbc-4371-941a-b52e2115db20))\u000d\u000a    (fp_line (start 1.68 0.95) (end -1.68 0.95) (layer "F.CrtYd") (width 0.05) (tstamp 6597e724-ffad-43f1-9619-cca25cced87f))\u000d\u000a    (fp_line (start -1.68 0.95) (end -1.68 -0.95) (layer "F.CrtYd") (width 0.05) (tstamp 895d5ca3-0e9a-421e-88ea-3017edd2db62))\u000d\u000a    (fp_line (start 1.68 -0.95) (end 1.68 0.95) (layer "F.CrtYd") (width 0.05) (tstamp aeae1c08-0511-41ff-896d-95b95a86eb35))\u000d\u000a    (fp_line (start -1 -0.625) (end 1 -0.625) (layer "F.Fab") (width 0.1) (tstamp 47890384-6eaa-420c-b9ae-e68a6a7f17b5))\u000d\u000a    (fp_line (start 1 -0.625) (end 1 0.625) (layer "F.Fab") (width 0.1) (tstamp 62c6f8ce-78e5-4ab3-bb01-2fcb0df87aa6))\u000d\u000a    (fp_line (start -1 0.625) (end -1 -0.625) (layer "F.Fab") (width 0.1) (tstamp 7da6dd22-6820-4812-8b65-ceb1440c016d))\u000d\u000a    (fp_line (start 1 0.625) (end -1 0.625) (layer "F.Fab") (width 0.1) (tstamp 9f5c7a80-7220-432e-865b-d1468e8a8d4c))\u000d\u000a    (pad "1" smd roundrect locked (at -0.9125 0 90) (size 1.025 1.4) (layers "F.Cu" "F.Paste" "F.Mask") (roundrect_rratio 0.243902)\u000d\u000a      (net 2 "+5V") (pintype "passive") (tstamp 00627221-b0fd-448e-b5a6-250d249697c2))\u000d\u000a    (pad "2" smd roundrect locked (at 0.9125 0 90) (size 1.025 1.4) (layers "F.Cu" "F.Paste" "F.Mask") (roundrect_rratio 0.243902)\u000d\u000a      (net 10 "Net-(R7-Pad2)") (pintype "passive") (tstamp a543a4a0-b8e2-45a4-be48-7207020a5b1f))\u000d\u000a    (model "${KICAD6_3DMODEL_DIR}/Resistor_SMD.3dshapes/R_0805_2012Metric.wrl"\u000d\u000a      (offset (xyz 0 0 0))\u000d\u000a      (scale (xyz 1 1 1))\u000d\u000a      (rotate (xyz 0 0 0))\u000d\u000a    )\u000d\u000a  )\u000d\u000a\u000d\u000a  (footprint "Capacitor_SMD:C_0805_2012Metric" (layer "F.Cu")\u000d\u000a    (tedit 5F68FEEE) (tstamp 586ec748-563a-478a-82db-706fb951336a)\u000d\u000a    (at 86.809672 38.4962 -90)\u000d\u000a    (descr "Capacitor SMD 0805 (2012 Metric), square (rectangular) end terminal, IPC_7351 nominal, (Body size source: IPC-SM-782 page 76, https://www.pcb-3d.com/wordpress/wp-content/uploads/ipc-sm-782a_amendment_1_and_2.pdf, https://docs.google.com/spreadsheets/d/1BsfQQcO9C6DZCsRaXUlFlo91Tg2WpOkGARC1WS5S8t0/edit?usp=sharing), generated with kicad-footprint-generator")\u000d\u000a    (tags "capacitor")\u000d\u000a    (property "Sheetfile" "LED_Display_Module.kicad_sch")\u000d\u000a    (property "Sheetname" "LED_Display_Module1")\u000d\u000a    (path "/0ae7d831-a065-4601-9f9d-c26d40fd3d00/3db941d6-cd8d-4d81-9286-2b8bd3f70e74")\u000d\u000a    (attr smd)\u000d\u000a    (fp_text reference "C3" (at 0 -1.68 90) (layer "F.SilkS")\u000d\u000a      (effects (font (size 1 1) (thickness 0.15)))\u000d\u000a      (tstamp bc05cdd5-f72f-4c21-b397-0fa889871114)\u000d\u000a    )\u000d\u000a    (fp_text value "2.7n" (at 0 1.68 90) (layer "F.Fab")\u000d\u000a      (effects (font (size 1 1) (thickness 0.15)))\u000d\u000a      (tstamp b4fbe1fb-a9a3-4020-9a82-d3fa1900cd85)\u000d\u000a    )\u000d\u000a    (fp_text user "${REFERENCE}" (at 0 0 90) (layer "F.Fab")\u000d\u000a      (effects (font (size 0.5 0.5) (thickness 0.08)))\u000d\u000a      (tstamp 278deae2-fb37-4957-b2cb-afac30cacb12)\u000d\u000a    )\u000d\u000a    (fp_line (start -0.261252 -0.735) (end 0.261252 -0.735) (layer "F.SilkS") (width 0.12) (tstamp 056788ec-4ecf-4826-b996-bd884a6442a0))\u000d\u000a    (fp_line (start -0.261252 0.735) (end 0.261252 0.735) (layer "F.SilkS") (width 0.12) (tstamp 9e5fe65d-f158-4eb5-af93-2b5d0b9a0d55))\u000d\u000a    (fp_line (start -1.7 -0.98) (end 1.7 -0.98) (layer "F.CrtYd") (width 0.05) (tstamp 792ace59-9f73-49b7-92df-01568ab2b00b))\u000d\u000a    (fp_line (start 1.7 -0.98) (end 1.7 0.98) (layer "F.CrtYd") (width 0.05) (tstamp 900cb6c8-1d05-4537-a4f0-9a7cc1a2ea1c))\u000d\u000a    (fp_line (start -1.7 0.98) (end -1.7 -0.98) (layer "F.CrtYd") (width 0.05) (tstamp a86cc026-cc17-4a81-85bf-4c26f61b9f32))\u000d\u000a    (fp_line (start 1.7 0.98) (end -1.7 0.98) (layer "F.CrtYd") (width 0.05) (tstamp b500fd76-a613-4f44-aac4-99213e86ff44))\u000d\u000a    (fp_line (start 1 -0.625) (end 1 0.625) (layer "F.Fab") (width 0.1) (tstamp 4b042b6c-c042-4cf1-ba6e-bd77c51dbedb))\u000d\u000a    (fp_line (start -1 0.625) (end -1 -0.625) (layer "F.Fab") (width 0.1) (tstamp 53ae21b8-f187-4817-8c27-1f06278d249b))\u000d\u000a    (fp_line (start 1 0.625) (end -1 0.625) (layer "F.Fab") (width 0.1) (tstamp 90f2ca05-313f-4af8-87b1-a8109224a221))\u000d\u000a    (fp_line (start -1 -0.625) (end 1 -0.625) (layer "F.Fab") (width 0.1) (tstamp c0c62e93-8e84-4f2b-96ae-e90b55e0550a))\u000d\u000a    (pad "1" smd roundrect locked (at -0.95 0 270) (size 1 1.45) (layers "F.Cu" "F.Paste" "F.Mask") (roundrect_rratio 0.25)\u000d\u000a      (net 3 "Net-(C3-Pad1)") (pintype "passive") (tstamp c1c05ce7-1c25-4382-b3b9-d3ec327783d4))\u000d\u000a    (pad "2" smd roundrect locked (at 0.95 0 270) (size 1 1.45) (layers "F.Cu" "F.Paste" "F.Mask") (roundrect_rratio 0.25)\u000d\u000a      (net 1 "GND") (pintype "passive") (tstamp 83d85a81-e014-4ee9-9433-a9a045c80893))\u000d\u000a    (model "${KICAD6_3DMODEL_DIR}/Capacitor_SMD.3dshapes/C_0805_2012Metric.wrl"\u000d\u000a      (offset (xyz 0 0 0))\u000d\u000a      (scale (xyz 1 1 1))\u000d\u000a      (rotate (xyz 0 0 0))\u000d\u000a    )\u000d\u000a  )\u000d\u000a\u000d\u000a  (footprint "Display_7Segment:Sx39-1xxxxx" (layer "F.Cu")\u000d\u000a    (tedit 5D854641) (tstamp 65e58d89-f213-4051-b36b-7b3454867ad5)\u000d\u000a    (at 92.626772 23.9019)\u000d\u000a    (descr "Single digit 7 segment LED display in red, yellow or green colour http://www.kingbrightusa.com/images/catalog/SPEC/sa39-11ewa.pdf")\u000d\u000a    (tags "One digit LED 7 segment SA39-11 SC39-11 SA39-12 SC39-12")\u000d\u000a    (property "Sheetfile" "LED_Display_Module.kicad_sch")\u000d\u000a    (property "Sheetname" "LED_Display_Module1")\u000d\u000a    (path "/0ae7d831-a065-4601-9f9d-c26d40fd3d00/f0800e73-9d1f-4356-90ed-d33c710d5f42")\u000d\u000a    (attr through_hole)\u000d\u000a    (fp_text reference "U6" (at 3.81 -2.54) (layer "F.SilkS")\u000d\u000a      (effects (font (size 1 1) (thickness 0.15)))\u000d\u000a      (tstamp 79bd7607-8381-4bff-b61a-a2c7ffa05fe5)\u000d\u000a    )\u000d\u000a    (fp_text value "SA39-11SRWA" (at 2.54 12.7) (layer "F.Fab")\u000d\u000a      (effects (font (size 1 1) (thickness 0.15)))\u000d\u000a      (tstamp c0e13d91-53b7-4de6-8d61-7c13732113b8)\u000d\u000a    )\u000d\u000a    (fp_text user "${REFERENCE}" (at 3.81 5.08) (layer "F.Fab")\u000d\u000a      (effects (font (size 1 1) (thickness 0.15)))\u000d\u000a      (tstamp cad44c02-7fd2-4e9a-b93a-e1b73d6a3ee6)\u000d\u000a    )\u000d\u000a    (fp_line (start 8.92 -1.53) (end -1.3 -1.53) (layer "F.SilkS") (width 0.12) (tstamp 0e1c6bbc-4cc4-4ce9-b48a-8292bb286da8))\u000d\u000a    (fp_line (start -1.66 -1.89) (end -0.46 -1.89) (layer "F.SilkS") (width 0.12) (tstamp 1843d2c0-629c-44e7-8460-03ced60a2111))\u000d\u000a    (fp_line (start -1.66 -0.69) (end -1.66 -1.89) (layer "F.SilkS") (width 0.12) (tstamp 1a9f0d73-6986-450b-8da5-dca8d718cd0d))\u000d\u000a    (fp_line (start 8.92 11.69) (end 8.92 -1.53) (layer "F.SilkS") (width 0.12) (tstamp 5da0928a-9939-439c-bcbe-74de097058a8))\u000d\u000a    (fp_line (start -1.3 11.69) (end 8.92 11.69) (layer "F.SilkS") (width 0.12) (tstamp bca99a8e-598f-436a-9158-7a050d1f7ca4))\u000d\u000a    (fp_line (start -1.3 -1.53) (end -1.3 11.69) (layer "F.SilkS") (width 0.12) (tstamp f0f3907b-44e3-4106-9f24-d8ce836b6bb0))\u000d\u000a    (fp_line (start -1.44 11.83) (end -1.44 -1.67) (layer "F.CrtYd") (width 0.05) (tstamp 0a2d185c-629f-461f-8b6b-f91f1894e6ba))\u000d\u000a    (fp_line (start 9.06 11.83) (end -1.44 11.83) (layer "F.CrtYd") (width 0.05) (tstamp 17adff9d-c581-42e4-b552-035b922b5256))\u000d\u000a    (fp_line (start 9.06 -1.67) (end 9.06 11.83) (layer "F.CrtYd") (width 0.05) (tstamp 5684e95c-6824-46cf-8e72-881178a51d31))\u000d\u000a    (fp_line (start -1.44 -1.67) (end 9.06 -1.67) (layer "F.CrtYd") (width 0.05) (tstamp 8e6e5f4d-6567-459b-ac23-dfc1d101e708))\u000d\u000a    (fp_line (start -0.19 -1.42) (end 8.81 -1.42) (layer "F.Fab") (width 0.1) (tstamp 0a52fedd-967a-423d-aaaf-3875f20f935b))\u000d\u000a    (fp_line (start -1.19 -0.42) (end -0.19 -1.42) (layer "F.Fab") (width 0.1) (tstamp 199ade13-7442-4da9-8eea-a8e7681e2aee))\u000d\u000a    (fp_line (start 8.81 -1.42) (end 8.81 11.58) (layer "F.Fab") (width 0.1) (tstamp 48a8c1f5-4bcb-4560-9762-44aaefee4419))\u000d\u000a    (fp_line (start 8.81 11.58) (end -1.19 11.58) (layer "F.Fab") (width 0.1) (tstamp b4856fa9-d711-4b3f-8ccf-343375c62dce))\u000d\u000a    (fp_line (start -1.19 11.58) (end -1.19 -0.42) (layer "F.Fab") (width 0.1) (tstamp b8381d48-3c5b-401b-ac19-279d8173864c))\u000d\u000a    (pad "1" thru_hole rect locked (at 0 0) (size 1.7 1.7) (drill 1) (layers *.Cu *.Mask)\u000d\u000a      (net 13 "Net-(U6-Pad1)") (pinfunction "G") (pintype "input") (tstamp 9d541d6f-313d-4469-a000-68242c1dd6d6))\u000d\u000a    (pad "2" thru_hole circle locked (at 0 2.54) (size 1.7 1.7) (drill 1) (layers *.Cu *.Mask)\u000d\u000a      (net 14 "Net-(U6-Pad2)") (pinfunction "F") (pintype "input") (tstamp 01422660-08c8-48f3-98ca-26cbe7f98f5b))\u000d\u000a    (pad "3" thru_hole circle locked (at 0 5.08) (size 1.7 1.7) (drill 1) (layers *.Cu *.Mask)\u000d\u000a      (net 9 "Net-(Q4-Pad2)") (pinfunction "CA") (pintype "input") (tstamp baaf14d0-0c5c-4bf0-82d7-5ee71082500d))\u000d\u000a    (pad "4" thru_hole circle locked (at 0 7.62) (size 1.7 1.7) (drill 1) (layers *.Cu *.Mask)\u000d\u000a      (net 15 "Net-(U6-Pad4)") (pinfunction "E") (pintype "input") (tstamp 7410568a-af90-4a4e-a67d-5fd1863e0d95))\u000d\u000a    (pad "5" thru_hole circle locked (at 0 10.16) (size 1.7 1.7) (drill 1) (layers *.Cu *.Mask)\u000d\u000a      (net 16 "Net-(U6-Pad5)") (pinfunction "D") (pintype "input") (tstamp 0dcb5ab5-f291-489d-b2bc-0f0b25b801ee))\u000d\u000a    (pad "6" thru_hole circle locked (at 7.62 10.16) (size 1.7 1.7) (drill 1) (layers *.Cu *.Mask)\u000d\u000a      (net 17 "Net-(U6-Pad6)") (pinfunction "DP") (pintype "input") (tstamp 30b75c25-1d2c-45e7-83e2-bb3be98f8f83))\u000d\u000a    (pad "7" thru_hole circle locked (at 7.62 7.62) (size 1.7 1.7) (drill 1) (layers *.Cu *.Mask)\u000d\u000a      (net 18 "Net-(U6-Pad7)") (pinfunction "C") (pintype "input") (tstamp 44cd273f-f3a1-4b9a-83a6-972b276409e1))\u000d\u000a    (pad "8" thru_hole circle locked (at 7.62 5.08) (size 1.7 1.7) (drill 1) (layers *.Cu *.Mask)\u000d\u000a      (net 9 "Net-(Q4-Pad2)") (pinfunction "CA") (pintype "input") (tstamp 5daf2c3c-7702-4a59-b99d-84464c054bc4))\u000d\u000a    (pad "9" thru_hole circle locked (at 7.62 2.54) (size 1.7 1.7) (drill 1) (layers *.Cu *.Mask)\u000d\u000a      (net 19 "Net-(U6-Pad9)") (pinfunction "B") (pintype "input") (tstamp e47d9cf3-579e-4750-bc6d-bf58b55862bb))\u000d\u000a    (pad "10" thru_hole circle locked (at 7.62 0) (size 1.7 1.7) (drill 1) (layers *.Cu *.Mask)\u000d\u000a      (net 20 "Net-(U6-Pad10)") (pinfunction "A") (pintype "input") (tstamp 414a1d4c-7afc-4ffa-8579-88675cedc4ce))\u000d\u000a    (model "${KICAD6_3DMODEL_DIR}/Display_7Segment.3dshapes/Sx39-1xxxxx.wrl"\u000d\u000a      (offset (xyz 0 0 0))\u000d\u000a      (scale (xyz 1 1 1))\u000d\u000a      (rotate (xyz 0 0 0))\u000d\u000a    )\u000d\u000a  )\u000d\u000a\u000d\u000a  (footprint "Resistor_SMD:R_0805_2012Metric" (layer "F.Cu")\u000d\u000a    (tedit 5F68FEEE) (tstamp 99162744-5eac-427e-9957-877587056aee)\u000d\u000a    (at 94.836072 38.5064 -90)\u000d\u000a    (descr "Resistor SMD 0805 (2012 Metric), square (rectangular) end terminal, IPC_7351 nominal, (Body size source: IPC-SM-782 page 72, https://www.pcb-3d.com/wordpress/wp-content/uploads/ipc-sm-782a_amendment_1_and_2.pdf), generated with kicad-footprint-generator")\u000d\u000a    (tags "resistor")\u000d\u000a    (property "Sheetfile" "LED_Display_Module.kicad_sch")\u000d\u000a    (property "Sheetname" "LED_Display_Module1")\u000d\u000a    (path "/0ae7d831-a065-4601-9f9d-c26d40fd3d00/12228e1f-c048-4687-b1aa-483fbeec3aec")\u000d\u000a    (attr smd)\u000d\u000a    (fp_text reference "R10" (at 0 -1.65 90) (layer "F.SilkS")\u000d\u000a      (effects (font (size 1 1) (thickness 0.15)))\u000d\u000a      (tstamp 217a6ab0-8c75-4e09-8113-c7b7b906da43)\u000d\u000a    )\u000d\u000a    (fp_text value "220" (at 0 1.65 90) (layer "F.Fab")\u000d\u000a      (effects (font (size 1 1) (thickness 0.15)))\u000d\u000a      (tstamp 57881c8f-ea31-4450-bce6-89885e0a9bfd)\u000d\u000a    )\u000d\u000a    (fp_text user "${REFERENCE}" (at 0 0 90) (layer "F.Fab")\u000d\u000a      (effects (font (size 0.5 0.5) (thickness 0.08)))\u000d\u000a      (tstamp 41ef6d8e-078c-46e5-a743-15f86f94b1c5)\u000d\u000a    )\u000d\u000a    (fp_line (start -0.227064 0.735) (end 0.227064 0.735) (layer "F.SilkS") (width 0.12) (tstamp 0667208e-872f-444a-9ed0-78a1b5f392d2))\u000d\u000a    (fp_line (start -0.227064 -0.735) (end 0.227064 -0.735) (layer "F.SilkS") (width 0.12) (tstamp 7aad0cca-fb50-4041-9a10-5380cb0860ac))\u000d\u000a    (fp_line (start 1.68 -0.95) (end 1.68 0.95) (layer "F.CrtYd") (width 0.05) (tstamp 22fd57c4-481e-4417-b920-694451210da2))\u000d\u000a    (fp_line (start -1.68 0.95) (end -1.68 -0.95) (layer "F.CrtYd") (width 0.05) (tstamp 7fd11519-eb9e-4413-8ca2-e43e38c699f6))\u000d\u000a    (fp_line (start -1.68 -0.95) (end 1.68 -0.95) (layer "F.CrtYd") (width 0.05) (tstamp bc29a09d-ebbe-4bab-9edb-114e75ee17a4))\u000d\u000a    (fp_line (start 1.68 0.95) (end -1.68 0.95) (layer "F.CrtYd") (width 0.05) (tstamp da151d0a-a1fa-4865-aa78-eb4b6082fbfd))\u000d\u000a    (fp_line (start -1 0.625) (end -1 -0.625) (layer "F.Fab") (width 0.1) (tstamp 449cc181-df4b-4d3b-93ef-0653c2171fe8))\u000d\u000a    (fp_line (start 1 0.625) (end -1 0.625) (layer "F.Fab") (width 0.1) (tstamp 524dc8d0-13b4-43fe-b274-8ac08bc4b894))\u000d\u000a    (fp_line (start 1 -0.625) (end 1 0.625) (layer "F.Fab") (width 0.1) (tstamp 969d876f-dc87-40bf-9e96-03cbb9ea5e82))\u000d\u000a    (fp_line (start -1 -0.625) (end 1 -0.625) (layer "F.Fab") (width 0.1) (tstamp eec347af-8fb3-4b2d-8e93-6e7176516f57))\u000d\u000a    (pad "1" smd roundrect locked (at -0.9125 0 270) (size 1.025 1.4) (layers "F.Cu" "F.Paste" "F.Mask") (roundrect_rratio 0.243902)\u000d\u000a      (net 12 "Net-(R10-Pad1)") (pintype "passive") (tstamp 31e2d26e-842a-4694-a3ae-7642d792727c))\u000d\u000a    (pad "2" smd roundrect locked (at 0.9125 0 270) (size 1.025 1.4) (layers "F.Cu" "F.Paste" "F.Mask") (roundrect_rratio 0.243902)\u000d\u000a      (net 5 "SDA") (pintype "passive") (tstamp 3f1d3b22-3ba1-4783-af8d-526bce7c36db))\u000d\u000a    (model "${KICAD6_3DMODEL_DIR}/Resistor_SMD.3dshapes/R_0805_2012Metric.wrl"\u000d\u000a      (offset (xyz 0 0 0))\u000d\u000a      (scale (xyz 1 1 1))\u000d\u000a      (rotate (xyz 0 0 0))\u000d\u000a    )\u000d\u000a  )\u000d\u000a\u000d\u000a  (footprint "Display_7Segment:Sx39-1xxxxx" (layer "F.Cu")\u000d\u000a    (tedit 5D854641) (tstamp a2d090b5-bdc2-4863-87f2-2ea46a246d3d)\u000d\u000a    (at 103.929772 23.9019)\u000d\u000a    (descr "Single digit 7 segment LED display in red, yellow or green colour http://www.kingbrightusa.com/images/catalog/SPEC/sa39-11ewa.pdf")\u000d\u000a    (tags "One digit LED 7 segment SA39-11 SC39-11 SA39-12 SC39-12")\u000d\u000a    (property "Sheetfile" "LED_Display_Module.kicad_sch")\u000d\u000a    (property "Sheetname" "LED_Display_Module1")\u000d\u000a    (path "/0ae7d831-a065-4601-9f9d-c26d40fd3d00/adacc58a-cf57-41c8-8099-c2d7655eac31")\u000d\u000a    (attr through_hole)\u000d\u000a    (fp_text reference "U8" (at 3.81 -2.54) (layer "F.SilkS")\u000d\u000a      (effects (font (size 1 1) (thickness 0.15)))\u000d\u000a      (tstamp 78d3a4a0-e724-44e1-963f-de88a39d4158)\u000d\u000a    )\u000d\u000a    (fp_text value "SA39-11SRWA" (at 2.54 12.7) (layer "F.Fab")\u000d\u000a      (effects (font (size 1 1) (thickness 0.15)))\u000d\u000a      (tstamp 4a56ac62-5ec2-46fc-a86c-9adf2d8fead1)\u000d\u000a    )\u000d\u000a    (fp_text user "${REFERENCE}" (at 3.81 5.08) (layer "F.Fab")\u000d\u000a      (effects (font (size 1 1) (thickness 0.15)))\u000d\u000a      (tstamp c2d24be9-0a91-4ad8-a6f8-4f606bd871ac)\u000d\u000a    )\u000d\u000a    (fp_line (start -1.66 -0.69) (end -1.66 -1.89) (layer "F.SilkS") (width 0.12) (tstamp 1354903a-b7d2-4e04-b220-6c6c8f058ef7))\u000d\u000a    (fp_line (start -1.3 -1.53) (end -1.3 11.69) (layer "F.SilkS") (width 0.12) (tstamp 1c57f8a5-0a6c-44cd-b514-5b9d5f8cc98b))\u000d\u000a    (fp_line (start -1.3 11.69) (end 8.92 11.69) (layer "F.SilkS") (width 0.12) (tstamp 8e5a3783-142f-42f6-a215-d0f81a05c5c0))\u000d\u000a    (fp_line (start 8.92 -1.53) (end -1.3 -1.53) (layer "F.SilkS") (width 0.12) (tstamp b7013b78-ce5a-47df-9e6f-e993b6073985))\u000d\u000a    (fp_line (start 8.92 11.69) (end 8.92 -1.53) (layer "F.SilkS") (width 0.12) (tstamp c78d97f4-1d1b-46c3-bcbb-8424944a8978))\u000d\u000a    (fp_line (start -1.66 -1.89) (end -0.46 -1.89) (layer "F.SilkS") (width 0.12) (tstamp e0660a46-ff2a-4b28-b311-cf71bc999b82))\u000d\u000a    (fp_line (start 9.06 -1.67) (end 9.06 11.83) (layer "F.CrtYd") (width 0.05) (tstamp 04868f85-bc69-4fa9-8e62-d78ffe5ae58e))\u000d\u000a    (fp_line (start -1.44 11.83) (end -1.44 -1.67) (layer "F.CrtYd") (width 0.05) (tstamp 2792ed93-89db-4e51-99ff-281323e776eb))\u000d\u000a    (fp_line (start 9.06 11.83) (end -1.44 11.83) (layer "F.CrtYd") (width 0.05) (tstamp 4102ae0e-3d75-40cd-957b-0b4db5d3f5ee))\u000d\u000a    (fp_line (start -1.44 -1.67) (end 9.06 -1.67) (layer "F.CrtYd") (width 0.05) (tstamp cd8c6c53-febf-40c1-af77-5373add0fde7))\u000d\u000a    (fp_line (start -1.19 -0.42) (end -0.19 -1.42) (layer "F.Fab") (width 0.1) (tstamp 335263d3-7e35-4a9c-83c2-cd71d45f0688))\u000d\u000a    (fp_line (start 8.81 -1.42) (end 8.81 11.58) (layer "F.Fab") (width 0.1) (tstamp 33b48673-c959-4510-b6fa-fd3f7bdb00fd))\u000d\u000a    (fp_line (start -0.19 -1.42) (end 8.81 -1.42) (layer "F.Fab") (width 0.1) (tstamp 9a88d63d-f7e5-416d-9807-a8e942aef287))\u000d\u000a    (fp_line (start -1.19 11.58) (end -1.19 -0.42) (layer "F.Fab") (width 0.1) (tstamp a17368fb-646b-4ffd-9057-0994609f8a46))\u000d\u000a    (fp_line (start 8.81 11.58) (end -1.19 11.58) (layer "F.Fab") (width 0.1) (tstamp ad2d033c-4040-4813-b5da-82cf827f9d86))\u000d\u000a    (pad "1" thru_hole rect locked (at 0 0) (size 1.7 1.7) (drill 1) (layers *.Cu *.Mask)\u000d\u000a      (net 13 "Net-(U6-Pad1)") (pinfunction "G") (pintype "input") (tstamp bc408f2c-2338-4a2e-9d30-e90fd4d4f487))\u000d\u000a    (pad "2" thru_hole circle locked (at 0 2.54) (size 1.7 1.7) (drill 1) (layers *.Cu *.Mask)\u000d\u000a      (net 14 "Net-(U6-Pad2)") (pinfunction "F") (pintype "input") (tstamp fdd41a68-206a-4076-b64a-8b7633d428d6))\u000d\u000a    (pad "3" thru_hole circle locked (at 0 5.08) (size 1.7 1.7) (drill 1) (layers *.Cu *.Mask)\u000d\u000a      (net 7 "Net-(Q3-Pad2)") (pinfunction "CA") (pintype "input") (tstamp 6476e233-d260-45fe-84d2-9ade7d0003a0))\u000d\u000a    (pad "4" thru_hole circle locked (at 0 7.62) (size 1.7 1.7) (drill 1) (layers *.Cu *.Mask)\u000d\u000a      (net 15 "Net-(U6-Pad4)") (pinfunction "E") (pintype "input") (tstamp a29e1299-22c5-4fd2-9a37-e405785962a9))\u000d\u000a    (pad "5" thru_hole circle locked (at 0 10.16) (size 1.7 1.7) (drill 1) (layers *.Cu *.Mask)\u000d\u000a      (net 16 "Net-(U6-Pad5)") (pinfunction "D") (pintype "input") (tstamp 8dcf40e6-09a5-42e4-8b46-f4738540468d))\u000d\u000a    (pad "6" thru_hole circle locked (at 7.62 10.16) (size 1.7 1.7) (drill 1) (layers *.Cu *.Mask)\u000d\u000a      (net 17 "Net-(U6-Pad6)") (pinfunction "DP") (pintype "input") (tstamp a8cdda0e-7b06-4b92-8078-341b4e32614a))\u000d\u000a    (pad "7" thru_hole circle locked (at 7.62 7.62) (size 1.7 1.7) (drill 1) (layers *.Cu *.Mask)\u000d\u000a      (net 18 "Net-(U6-Pad7)") (pinfunction "C") (pintype "input") (tstamp d6cc98ff-7d68-4734-afa1-c7dd225e08d3))\u000d\u000a    (pad "8" thru_hole circle locked (at 7.62 5.08) (size 1.7 1.7) (drill 1) (layers *.Cu *.Mask)\u000d\u000a      (net 7 "Net-(Q3-Pad2)") (pinfunction "CA") (pintype "input") (tstamp 90207e9d-650a-4c45-b7d5-e506cc85537d))\u000d\u000a    (pad "9" thru_hole circle locked (at 7.62 2.54) (size 1.7 1.7) (drill 1) (layers *.Cu *.Mask)\u000d\u000a      (net 19 "Net-(U6-Pad9)") (pinfunction "B") (pintype "input") (tstamp efd79052-e146-4d61-9e0a-ba764a5a966b))\u000d\u000a    (pad "10" thru_hole circle locked (at 7.62 0) (size 1.7 1.7) (drill 1) (layers *.Cu *.Mask)\u000d\u000a      (net 20 "Net-(U6-Pad10)") (pinfunction "A") (pintype "input") (tstamp 84315919-677c-4909-a747-2c92c96d5870))\u000d\u000a    (model "${KICAD6_3DMODEL_DIR}/Display_7Segment.3dshapes/Sx39-1xxxxx.wrl"\u000d\u000a      (offset (xyz 0 0 0))\u000d\u000a      (scale (xyz 1 1 1))\u000d\u000a      (rotate (xyz 0 0 0))\u000d\u000a    )\u000d\u000a  )\u000d\u000a\u000d\u000a  (footprint "Package_TO_SOT_SMD:SOT-23" (layer "F.Cu")\u000d\u000a    (tedit 5FA16958) (tstamp ac81fb15-6f1a-451b-a962-fb87ffd26f6b)\u000d\u000a    (at 80.053272 38.4556)\u000d\u000a    (descr "SOT, 3 Pin (https://www.jedec.org/system/files/docs/to-236h.pdf variant AB), generated with kicad-footprint-generator ipc_gullwing_generator.py")\u000d\u000a    (tags "SOT TO_SOT_SMD")\u000d\u000a    (property "Sheetfile" "LED_Display_Module.kicad_sch")\u000d\u000a    (property "Sheetname" "LED_Display_Module1")\u000d\u000a    (path "/0ae7d831-a065-4601-9f9d-c26d40fd3d00/80b3eefa-3636-4e23-8967-487c9b48c80b")\u000d\u000a    (attr smd)\u000d\u000a    (fp_text reference "Q4" (at 0 -2.4) (layer "F.SilkS")\u000d\u000a      (effects (font (size 1 1) (thickness 0.15)))\u000d\u000a      (tstamp b4afdd30-7a78-4cd8-8670-bb6dd787dcdc)\u000d\u000a    )\u000d\u000a    (fp_text value "BC817" (at 0 2.4) (layer "F.Fab")\u000d\u000a      (effects (font (size 1 1) (thickness 0.15)))\u000d\u000a      (tstamp f46fb303-7470-41c0-b6e8-4553c1d6503f)\u000d\u000a    )\u000d\u000a    (fp_text user "${REFERENCE}" (at 0 0) (layer "F.Fab")\u000d\u000a      (effects (font (size 0.32 0.32) (thickness 0.05)))\u000d\u000a      (tstamp 8eacb9d3-c41d-4b39-abd1-0bc8f2e97411)\u000d\u000a    )\u000d\u000a    (fp_line (start 0 -1.56) (end 0.65 -1.56) (layer "F.SilkS") (width 0.12) (tstamp 39614f9f-2df5-492b-a093-45b7a48e295d))\u000d\u000a    (fp_line (start 0 -1.56) (end -1.675 -1.56) (layer "F.SilkS") (width 0.12) (tstamp 3cfddd47-0913-4692-89bb-8a69d22be5a7))\u000d\u000a    (fp_line (start 0 1.56) (end 0.65 1.56) (layer "F.SilkS") (width 0.12) (tstamp 3f9f133b-59b8-4791-b0ab-6fa861da9e3f))\u000d\u000a    (fp_line (start 0 1.56) (end -0.65 1.56) (layer "F.SilkS") (width 0.12) (tstamp 85621d90-361e-49b6-9449-b54a16cce021))\u000d\u000a    (fp_line (start -1.92 1.7) (end 1.92 1.7) (layer "F.CrtYd") (width 0.05) (tstamp 0fe3ebe2-61a9-477a-a657-d783c4c4d70e))\u000d\u000a    (fp_line (start 1.92 1.7) (end 1.92 -1.7) (layer "F.CrtYd") (width 0.05) (tstamp 56bbedad-6259-4443-b321-0ffa1f89c336))\u000d\u000a    (fp_line (start 1.92 -1.7) (end -1.92 -1.7) (layer "F.CrtYd") (width 0.05) (tstamp 832b1e20-f118-4505-ad00-93c040f2f83d))\u000d\u000a    (fp_line (start -1.92 -1.7) (end -1.92 1.7) (layer "F.CrtYd") (width 0.05) (tstamp a9ff0621-eacb-4187-ba89-29f236eec881))\u000d\u000a    (fp_line (start 0.65 -1.45) (end 0.65 1.45) (layer "F.Fab") (width 0.1) (tstamp 2949af22-2432-469e-9f07-eee60be8acbd))\u000d\u000a    (fp_line (start -0.65 1.45) (end -0.65 -1.125) (layer "F.Fab") (width 0.1) (tstamp 356199c8-c0f7-4995-bef0-53ad752a30c5))\u000d\u000a    (fp_line (start 0.65 1.45) (end -0.65 1.45) (layer "F.Fab") (width 0.1) (tstamp 3997254a-8057-4464-ba07-e37f0720cbd8))\u000d\u000a    (fp_line (start -0.325 -1.45) (end 0.65 -1.45) (layer "F.Fab") (width 0.1) (tstamp 7983b95c-14e4-4dec-ab4e-09c81071d9de))\u000d\u000a    (fp_line (start -0.65 -1.125) (end -0.325 -1.45) (layer "F.Fab") (width 0.1) (tstamp cb0f5a26-0827-4807-aea7-55b25947b9d5))\u000d\u000a    (pad "1" smd roundrect locked (at -0.9375 -0.95) (size 1.475 0.6) (layers "F.Cu" "F.Paste" "F.Mask") (roundrect_rratio 0.25)\u000d\u000a      (net 8 "Net-(Q4-Pad1)") (pinfunction "B") (pintype "input") (tstamp 741879e3-3045-40c7-849d-7f437c35ee91))\u000d\u000a    (pad "2" smd roundrect locked (at -0.9375 0.95) (size 1.475 0.6) (layers "F.Cu" "F.Paste" "F.Mask") (roundrect_rratio 0.25)\u000d\u000a      (net 9 "Net-(Q4-Pad2)") (pinfunction "E") (pintype "passive") (tstamp 6ee71a3c-fedb-4cc6-a3c6-f3d6f3ac6767))\u000d\u000a    (pad "3" smd roundrect locked (at 0.9375 0) (size 1.475 0.6) (layers "F.Cu" "F.Paste" "F.Mask") (roundrect_rratio 0.25)\u000d\u000a      (net 2 "+5V") (pinfunction "C") (pintype "passive") (tstamp 06b6db7e-5210-41ec-a47b-0127ebbe0786))\u000d\u000a    (model "${KICAD6_3DMODEL_DIR}/Package_TO_SOT_SMD.3dshapes/SOT-23.wrl"\u000d\u000a      (offset (xyz 0 0 0))\u000d\u000a      (scale (xyz 1 1 1))\u000d\u000a      (rotate (xyz 0 0 0))\u000d\u000a    )\u000d\u000a  )\u000d\u000a\u000d\u000a  (footprint "Display_7Segment:Sx39-1xxxxx" (layer "F.Cu")\u000d\u000a    (tedit 5D854641) (tstamp ad541cb2-f097-4769-b1c0-c1cca23ca9bd)\u000d\u000a    (at 81.323272 23.9273)\u000d\u000a    (descr "Single digit 7 segment LED display in red, yellow or green colour http://www.kingbrightusa.com/images/catalog/SPEC/sa39-11ewa.pdf")\u000d\u000a    (tags "One digit LED 7 segment SA39-11 SC39-11 SA39-12 SC39-12")\u000d\u000a    (property "Sheetfile" "LED_Display_Module.kicad_sch")\u000d\u000a    (property "Sheetname" "LED_Display_Module1")\u000d\u000a    (path "/0ae7d831-a065-4601-9f9d-c26d40fd3d00/60094a34-55c9-4ded-9ddb-c1687b3a2000")\u000d\u000a    (attr through_hole)\u000d\u000a    (fp_text reference "U10" (at 3.81 -2.54) (layer "F.SilkS")\u000d\u000a      (effects (font (size 1 1) (thickness 0.15)))\u000d\u000a      (tstamp d90db84e-7df3-4d1b-b263-27f7c3991121)\u000d\u000a    )\u000d\u000a    (fp_text value "SA39-11SRWA" (at 2.54 12.7) (layer "F.Fab")\u000d\u000a      (effects (font (size 1 1) (thickness 0.15)))\u000d\u000a      (tstamp d52775ee-dd56-474f-8b5c-c66029880e5c)\u000d\u000a    )\u000d\u000a    (fp_text user "${REFERENCE}" (at 3.81 5.08) (layer "F.Fab")\u000d\u000a      (effects (font (size 1 1) (thickness 0.15)))\u000d\u000a      (tstamp 1b8d5810-67b5-41f5-a4e9-e6c2cc9fec50)\u000d\u000a    )\u000d\u000a    (fp_line (start -1.3 -1.53) (end -1.3 11.69) (layer "F.SilkS") (width 0.12) (tstamp 24fbbd33-4896-414c-ba79-167809dd0e90))\u000d\u000a    (fp_line (start -1.3 11.69) (end 8.92 11.69) (layer "F.SilkS") (width 0.12) (tstamp 2be498d5-e7b2-4098-b853-d60412f65c3b))\u000d\u000a    (fp_line (start -1.66 -1.89) (end -0.46 -1.89) (layer "F.SilkS") (width 0.12) (tstamp 504b138d-cda6-48ea-a44b-2c0d0cf874fc))\u000d\u000a    (fp_line (start 8.92 -1.53) (end -1.3 -1.53) (layer "F.SilkS") (width 0.12) (tstamp a281de60-7af0-498c-be0b-24572e88b490))\u000d\u000a    (fp_line (start 8.92 11.69) (end 8.92 -1.53) (layer "F.SilkS") (width 0.12) (tstamp c2f8c49f-d49f-49e2-940a-a7b9765ffdf0))\u000d\u000a    (fp_line (start -1.66 -0.69) (end -1.66 -1.89) (layer "F.SilkS") (width 0.12) (tstamp c9dc1467-f8a9-424e-ab40-9eace7cb7fbb))\u000d\u000a    (fp_line (start -1.44 -1.67) (end 9.06 -1.67) (layer "F.CrtYd") (width 0.05) (tstamp 138f5600-7fba-4219-9f21-9ce4066a1d82))\u000d\u000a    (fp_line (start 9.06 11.83) (end -1.44 11.83) (layer "F.CrtYd") (width 0.05) (tstamp 5b86cb50-e2ef-475e-93e3-77fea6b5a690))\u000d\u000a    (fp_line (start 9.06 -1.67) (end 9.06 11.83) (layer "F.CrtYd") (width 0.05) (tstamp 7167e0fb-15b0-446d-969c-ecf63e50097d))\u000d\u000a    (fp_line (start -1.44 11.83) (end -1.44 -1.67) (layer "F.CrtYd") (width 0.05) (tstamp b5691874-e380-4013-b466-13948504ae2f))\u000d\u000a    (fp_line (start -1.19 -0.42) (end -0.19 -1.42) (layer "F.Fab") (width 0.1) (tstamp 1cd08355-701e-4fba-886f-d48517dcccf5))\u000d\u000a    (fp_line (start -1.19 11.58) (end -1.19 -0.42) (layer "F.Fab") (width 0.1) (tstamp 2f8dfa45-14b0-4de4-b3b0-e7b73da81a0a))\u000d\u000a    (fp_line (start 8.81 11.58) (end -1.19 11.58) (layer "F.Fab") (width 0.1) (tstamp 84282cc7-416d-48c2-ae9f-c0149b35065e))\u000d\u000a    (fp_line (start -0.19 -1.42) (end 8.81 -1.42) (layer "F.Fab") (width 0.1) (tstamp c25b90aa-c787-46a1-8b80-e5b9fd45039a))\u000d\u000a    (fp_line (start 8.81 -1.42) (end 8.81 11.58) (layer "F.Fab") (width 0.1) (tstamp eb79b938-dc23-4503-beb0-3634b653c9e4))\u000d\u000a    (pad "1" thru_hole rect locked (at 0 0) (size 1.7 1.7) (drill 1) (layers *.Cu *.Mask)\u000d\u000a      (net 21 "Net-(U10-Pad1)") (pinfunction "G") (pintype "input") (tstamp 946b1da9-be3d-46a5-8490-1a85862f3b88))\u000d\u000a    (pad "2" thru_hole circle locked (at 0 2.54) (size 1.7 1.7) (drill 1) (layers *.Cu *.Mask)\u000d\u000a      (net 22 "Net-(U10-Pad2)") (pinfunction "F") (pintype "input") (tstamp 7badec54-dd0c-405a-acf1-25eff9460213))\u000d\u000a    (pad "3" thru_hole circle locked (at 0 5.08) (size 1.7 1.7) (drill 1) (layers *.Cu *.Mask)\u000d\u000a      (net 7 "Net-(Q3-Pad2)") (pinfunction "CA") (pintype "input") (tstamp ec1c193f-86ec-48fc-a26b-de8201d681ac))\u000d\u000a    (pad "4" thru_hole circle locked (at 0 7.62) (size 1.7 1.7) (drill 1) (layers *.Cu *.Mask)\u000d\u000a      (net 23 "Net-(U10-Pad4)") (pinfunction "E") (pintype "input") (tstamp 077985bd-c8a6-43b8-af30-1141a8334306))\u000d\u000a    (pad "5" thru_hole circle locked (at 0 10.16) (size 1.7 1.7) (drill 1) (layers *.Cu *.Mask)\u000d\u000a      (net 24 "Net-(U10-Pad5)") (pinfunction "D") (pintype "input") (tstamp 3c3e78d8-62d7-4020-ae7c-c489234b27d5))\u000d\u000a    (pad "6" thru_hole circle locked (at 7.62 10.16) (size 1.7 1.7) (drill 1) (layers *.Cu *.Mask)\u000d\u000a      (net 25 "Net-(U10-Pad6)") (pinfunction "DP") (pintype "input") (tstamp 9caefee8-6dcd-4815-b6e5-c75999fb9c90))\u000d\u000a    (pad "7" thru_hole circle locked (at 7.62 7.62) (size 1.7 1.7) (drill 1) (layers *.Cu *.Mask)\u000d\u000a      (net 26 "Net-(U10-Pad7)") (pinfunction "C") (pintype "input") (tstamp 977371ef-232c-40b3-8805-7fed7909b206))\u000d\u000a    (pad "8" thru_hole circle locked (at 7.62 5.08) (size 1.7 1.7) (drill 1) (layers *.Cu *.Mask)\u000d\u000a      (net 7 "Net-(Q3-Pad2)") (pinfunction "CA") (pintype "input") (tstamp e3877396-3ff6-4b1d-9715-0d1a70961579))\u000d\u000a    (pad "9" thru_hole circle locked (at 7.62 2.54) (size 1.7 1.7) (drill 1) (layers *.Cu *.Mask)\u000d\u000a      (net 27 "Net-(U10-Pad9)") (pinfunction "B") (pintype "input") (tstamp f094eb5d-05c7-4c16-84d0-9d4665317bfb))\u000d\u000a    (pad "10" thru_hole circle locked (at 7.62 0) (size 1.7 1.7) (drill 1) (layers *.Cu *.Mask)\u000d\u000a      (net 28 "Net-(U10-Pad10)") (pinfunction "A") (pintype "input") (tstamp 4ff71e44-dddb-450e-9f6f-fe3947968fd4))\u000d\u000a    (model "${KICAD6_3DMODEL_DIR}/Display_7Segment.3dshapes/Sx39-1xxxxx.wrl"\u000d\u000a      (offset (xyz 0 0 0))\u000d\u000a      (scale (xyz 1 1 1))\u000d\u000a      (rotate (xyz 0 0 0))\u000d\u000a    )\u000d\u000a  )\u000d\u000a\u000d\u000a  (footprint "Resistor_SMD:R_0805_2012Metric" (layer "F.Cu")\u000d\u000a    (tedit 5F68FEEE) (tstamp c60045a9-c6dd-4a1d-b776-92c82360c330)\u000d\u000a    (at 92.804072 38.5064 90)\u000d\u000a    (descr "Resistor SMD 0805 (2012 Metric), square (rectangular) end terminal, IPC_7351 nominal, (Body size source: IPC-SM-782 page 72, https://www.pcb-3d.com/wordpress/wp-content/uploads/ipc-sm-782a_amendment_1_and_2.pdf), generated with kicad-footprint-generator")\u000d\u000a    (tags "resistor")\u000d\u000a    (property "Sheetfile" "LED_Display_Module.kicad_sch")\u000d\u000a    (property "Sheetname" "LED_Display_Module1")\u000d\u000a    (path "/0ae7d831-a065-4601-9f9d-c26d40fd3d00/bcad28b7-2d52-4a51-b187-c505d6dccdee")\u000d\u000a    (attr smd)\u000d\u000a    (fp_text reference "R9" (at 0 -1.65 90) (layer "F.SilkS")\u000d\u000a      (effects (font (size 1 1) (thickness 0.15)))\u000d\u000a      (tstamp 513c5122-3fbb-44b6-aa2c-74224719f915)\u000d\u000a    )\u000d\u000a    (fp_text value "220" (at 0 1.65 90) (layer "F.Fab")\u000d\u000a      (effects (font (size 1 1) (thickness 0.15)))\u000d\u000a      (tstamp f99552ce-0729-4ada-aef3-5686270d7c4d)\u000d\u000a    )\u000d\u000a    (fp_text user "${REFERENCE}" (at 0 0 90) (layer "F.Fab")\u000d\u000a      (effects (font (size 0.5 0.5) (thickness 0.08)))\u000d\u000a      (tstamp a8470270-920a-4fed-9691-22526135f92c)\u000d\u000a    )\u000d\u000a    (fp_line (start -0.227064 -0.735) (end 0.227064 -0.735) (layer "F.SilkS") (width 0.12) (tstamp 419715bf-ffaa-4f14-ba39-b7cca3633324))\u000d\u000a    (fp_line (start -0.227064 0.735) (end 0.227064 0.735) (layer "F.SilkS") (width 0.12) (tstamp f88265e8-a27a-4259-b3ad-7df91a571c60))\u000d\u000a    (fp_line (start 1.68 -0.95) (end 1.68 0.95) (layer "F.CrtYd") (width 0.05) (tstamp 7f7833f4-976f-4a80-99c4-69f2976ed565))\u000d\u000a    (fp_line (start -1.68 0.95) (end -1.68 -0.95) (layer "F.CrtYd") (width 0.05) (tstamp b45faf1e-b7a2-4d73-9833-db84a2fde78b))\u000d\u000a    (fp_line (start -1.68 -0.95) (end 1.68 -0.95) (layer "F.CrtYd") (width 0.05) (tstamp e5f06cd2-492e-41b2-8ded-13a3fa1042bb))\u000d\u000a    (fp_line (start 1.68 0.95) (end -1.68 0.95) (layer "F.CrtYd") (width 0.05) (tstamp ec7073f7-f754-4ee6-a977-3d11d16480f8))\u000d\u000a    (fp_line (start -1 -0.625) (end 1 -0.625) (layer "F.Fab") (width 0.1) (tstamp 376da264-b219-4ddc-be78-a640bbee3aef))\u000d\u000a    (fp_line (start 1 0.625) (end -1 0.625) (layer "F.Fab") (width 0.1) (tstamp 63892cea-0371-47b0-925d-c40106168946))\u000d\u000a    (fp_line (start 1 -0.625) (end 1 0.625) (layer "F.Fab") (width 0.1) (tstamp 7b8f4734-c91c-4c35-bc25-8ba9e0a60f64))\u000d\u000a    (fp_line (start -1 0.625) (end -1 -0.625) (layer "F.Fab") (width 0.1) (tstamp d37a42c4-6950-4517-b4dd-96056acf0925))\u000d\u000a    (pad "1" smd roundrect locked (at -0.9125 0 90) (size 1.025 1.4) (layers "F.Cu" "F.Paste" "F.Mask") (roundrect_rratio 0.243902)\u000d\u000a      (net 4 "SCL") (pintype "passive") (tstamp 0c75753f-ac98-42bf-95d0-ee8de408989d))\u000d\u000a    (pad "2" smd roundrect locked (at 0.9125 0 90) (size 1.025 1.4) (layers "F.Cu" "F.Paste" "F.Mask") (roundrect_rratio 0.243902)\u000d\u000a      (net 11 "Net-(R9-Pad2)") (pintype "passive") (tstamp d81bc63a-94f2-481d-a808-c50170eb6b79))\u000d\u000a    (model "${KICAD6_3DMODEL_DIR}/Resistor_SMD.3dshapes/R_0805_2012Metric.wrl"\u000d\u000a      (offset (xyz 0 0 0))\u000d\u000a      (scale (xyz 1 1 1))\u000d\u000a      (rotate (xyz 0 0 0))\u000d\u000a    )\u000d\u000a  )\u000d\u000a\u000d\u000a  (footprint "Package_TO_SOT_SMD:SOT-23" (layer "F.Cu")\u000d\u000a    (tedit 5FA16958) (tstamp d0111086-5d68-4ab0-b707-7da6b263c90b)\u000d\u000a    (at 100.627272 38.608 180)\u000d\u000a    (descr "SOT, 3 Pin (https://www.jedec.org/system/files/docs/to-236h.pdf variant AB), generated with kicad-footprint-generator ipc_gullwing_generator.py")\u000d\u000a    (tags "SOT TO_SOT_SMD")\u000d\u000a    (property "Sheetfile" "LED_Display_Module.kicad_sch")\u000d\u000a    (property "Sheetname" "LED_Display_Module1")\u000d\u000a    (path "/0ae7d831-a065-4601-9f9d-c26d40fd3d00/a7894b3a-13fb-4cdb-8bec-8af654eb1a53")\u000d\u000a    (attr smd)\u000d\u000a    (fp_text reference "Q3" (at 0 -2.4) (layer "F.SilkS")\u000d\u000a      (effects (font (size 1 1) (thickness 0.15)))\u000d\u000a      (tstamp 76ee303c-1cfc-45a8-ae72-af3efaba6c47)\u000d\u000a    )\u000d\u000a    (fp_text value "BC817" (at 0 2.4) (layer "F.Fab")\u000d\u000a      (effects (font (size 1 1) (thickness 0.15)))\u000d\u000a      (tstamp 872313a4-03e6-4e4a-b850-f54dcb50f9fc)\u000d\u000a    )\u000d\u000a    (fp_text user "${REFERENCE}" (at 0 0) (layer "F.Fab")\u000d\u000a      (effects (font (size 0.32 0.32) (thickness 0.05)))\u000d\u000a      (tstamp f8e9fc00-8f60-4688-b1c9-6de1e4c0c204)\u000d\u000a    )\u000d\u000a    (fp_line (start 0 -1.56) (end -1.675 -1.56) (layer "F.SilkS") (width 0.12) (tstamp 0aa1e38d-f07a-4820-b628-a171234563bb))\u000d\u000a    (fp_line (start 0 1.56) (end 0.65 1.56) (layer "F.SilkS") (width 0.12) (tstamp 1a85ffd6-ef8b-418f-990e-456d1ffab00e))\u000d\u000a    (fp_line (start 0 1.56) (end -0.65 1.56) (layer "F.SilkS") (width 0.12) (tstamp 1f01b2a1-9ae4-4793-9d17-5ed5c0966b9f))\u000d\u000a    (fp_line (start 0 -1.56) (end 0.65 -1.56) (layer "F.SilkS") (width 0.12) (tstamp e2df2a45-3811-4210-89e0-9a66f3cb9430))\u000d\u000a    (fp_line (start 1.92 -1.7) (end -1.92 -1.7) (layer "F.CrtYd") (width 0.05) (tstamp 1cbbfee4-06dd-44ee-af91-d336edf2459c))\u000d\u000a    (fp_line (start 1.92 1.7) (end 1.92 -1.7) (layer "F.CrtYd") (width 0.05) (tstamp 844f01a0-ac23-4a99-910e-4e91c579bb2b))\u000d\u000a    (fp_line (start -1.92 -1.7) (end -1.92 1.7) (layer "F.CrtYd") (width 0.05) (tstamp 9ed54841-4bec-491f-817d-b7e8b25ca06c))\u000d\u000a    (fp_line (start -1.92 1.7) (end 1.92 1.7) (layer "F.CrtYd") (width 0.05) (tstamp c2e901e5-a4cd-4374-af38-0566255ecbea))\u000d\u000a    (fp_line (start -0.65 -1.125) (end -0.325 -1.45) (layer "F.Fab") (width 0.1) (tstamp 33891c62-a79f-4243-b776-6be292690ac3))\u000d\u000a    (fp_line (start 0.65 1.45) (end -0.65 1.45) (layer "F.Fab") (width 0.1) (tstamp 59058a09-f800-497d-b8e1-cdf9632c6766))\u000d\u000a    (fp_line (start 0.65 -1.45) (end 0.65 1.45) (layer "F.Fab") (width 0.1) (tstamp 637c5908-9371-4d80-a19b-036e111ef5cd))\u000d\u000a    (fp_line (start -0.65 1.45) (end -0.65 -1.125) (layer "F.Fab") (width 0.1) (tstamp 7c11b885-29b4-4eb2-b782-dde8e3724f0c))\u000d\u000a    (fp_line (start -0.325 -1.45) (end 0.65 -1.45) (layer "F.Fab") (width 0.1) (tstamp e0692317-3143-4681-97c6-8fbe46592f31))\u000d\u000a    (pad "1" smd roundrect locked (at -0.9375 -0.95 180) (size 1.475 0.6) (layers "F.Cu" "F.Paste" "F.Mask") (roundrect_rratio 0.25)\u000d\u000a      (net 6 "Net-(Q3-Pad1)") (pinfunction "B") (pintype "input") (tstamp aae29862-3850-48eb-b7a8-38a62a8029dd))\u000d\u000a    (pad "2" smd roundrect locked (at -0.9375 0.95 180) (size 1.475 0.6) (layers "F.Cu" "F.Paste" "F.Mask") (roundrect_rratio 0.25)\u000d\u000a      (net 7 "Net-(Q3-Pad2)") (pinfunction "E") (pintype "passive") (tstamp 835d4ac3-3fb1-48d9-8c28-6093fe917376))\u000d\u000a    (pad "3" smd roundrect locked (at 0.9375 0 180) (size 1.475 0.6) (layers "F.Cu" "F.Paste" "F.Mask") (roundrect_rratio 0.25)\u000d\u000a      (net 2 "+5V") (pinfunction "C") (pintype "passive") (tstamp 0674c5a1-ca4b-4b6b-aa60-3847e1a37d52))\u000d\u000a    (model "${KICAD6_3DMODEL_DIR}/Package_TO_SOT_SMD.3dshapes/SOT-23.wrl"\u000d\u000a      (offset (xyz 0 0 0))\u000d\u000a      (scale (xyz 1 1 1))\u000d\u000a      (rotate (xyz 0 0 0))\u000d\u000a    )\u000d\u000a  )\u000d\u000a\u000d\u000a  (footprint "Display_7Segment:Sx39-1xxxxx" (layer "F.Cu")\u000d\u000a    (tedit 5D854641) (tstamp d40f18db-c543-4c22-a8b0-72b9c9e5ae8b)\u000d\u000a    (at 70.020772 23.9273)\u000d\u000a    (descr "Single digit 7 segment LED display in red, yellow or green colour http://www.kingbrightusa.com/images/catalog/SPEC/sa39-11ewa.pdf")\u000d\u000a    (tags "One digit LED 7 segment SA39-11 SC39-11 SA39-12 SC39-12")\u000d\u000a    (property "Sheetfile" "LED_Display_Module.kicad_sch")\u000d\u000a    (property "Sheetname" "LED_Display_Module1")\u000d\u000a    (path "/0ae7d831-a065-4601-9f9d-c26d40fd3d00/a347eca5-89b5-4330-85d3-261f7035d51c")\u000d\u000a    (attr through_hole)\u000d\u000a    (fp_text reference "U7" (at 3.81 -2.54) (layer "F.SilkS")\u000d\u000a      (effects (font (size 1 1) (thickness 0.15)))\u000d\u000a      (tstamp da7eee34-4516-4154-9034-7c9b8e2afe41)\u000d\u000a    )\u000d\u000a    (fp_text value "SA39-11SRWA" (at 2.54 12.7) (layer "F.Fab")\u000d\u000a      (effects (font (size 1 1) (thickness 0.15)))\u000d\u000a      (tstamp 1c4dfe58-85b1-467f-8e9d-bdb7a0d0ca8e)\u000d\u000a    )\u000d\u000a    (fp_text user "${REFERENCE}" (at 3.81 5.08) (layer "F.Fab")\u000d\u000a      (effects (font (size 1 1) (thickness 0.15)))\u000d\u000a      (tstamp cec22d4a-eda3-4d50-8609-c3a123c120be)\u000d\u000a    )\u000d\u000a    (fp_line (start -1.66 -0.69) (end -1.66 -1.89) (layer "F.SilkS") (width 0.12) (tstamp 05c4a04b-0442-4e18-9747-3d9fc4a562fe))\u000d\u000a    (fp_line (start 8.92 11.69) (end 8.92 -1.53) (layer "F.SilkS") (width 0.12) (tstamp 290c753b-3b9b-4c45-85a5-65bd9eae1f9e))\u000d\u000a    (fp_line (start 8.92 -1.53) (end -1.3 -1.53) (layer "F.SilkS") (width 0.12) (tstamp 6a5b3eea-de35-4a54-8316-e56ea2a634e4))\u000d\u000a    (fp_line (start -1.66 -1.89) (end -0.46 -1.89) (layer "F.SilkS") (width 0.12) (tstamp 7a332b0c-4cba-438b-85c1-9efe2690fb62))\u000d\u000a    (fp_line (start -1.3 11.69) (end 8.92 11.69) (layer "F.SilkS") (width 0.12) (tstamp 8a0095e3-f64e-4bc6-8d5a-1cdcee192b11))\u000d\u000a    (fp_line (start -1.3 -1.53) (end -1.3 11.69) (layer "F.SilkS") (width 0.12) (tstamp d4f9d898-7a83-4186-a9d6-9da79adbdd19))\u000d\u000a    (fp_line (start 9.06 11.83) (end -1.44 11.83) (layer "F.CrtYd") (width 0.05) (tstamp 10e5ae6d-e43e-4ff8-abc5-fd9df16782da))\u000d\u000a    (fp_line (start -1.44 -1.67) (end 9.06 -1.67) (layer "F.CrtYd") (width 0.05) (tstamp 28f921ab-5f55-47f8-b726-02e567145cd5))\u000d\u000a    (fp_line (start 9.06 -1.67) (end 9.06 11.83) (layer "F.CrtYd") (width 0.05) (tstamp 557d128f-cf69-4c70-9959-d139ac95c63c))\u000d\u000a    (fp_line (start -1.44 11.83) (end -1.44 -1.67) (layer "F.CrtYd") (width 0.05) (tstamp e89e5b16-554a-4d97-8f95-fc89c9b40d74))\u000d\u000a    (fp_line (start 8.81 11.58) (end -1.19 11.58) (layer "F.Fab") (width 0.1) (tstamp 740c9c9e-c377-4082-a7c2-2dfeb8296429))\u000d\u000a    (fp_line (start 8.81 -1.42) (end 8.81 11.58) (layer "F.Fab") (width 0.1) (tstamp 90b3e3a5-04e0-491b-97bf-2e8a21e1833b))\u000d\u000a    (fp_line (start -1.19 11.58) (end -1.19 -0.42) (layer "F.Fab") (width 0.1) (tstamp afc58bc7-e8b3-4ec7-b7ec-e155055196a5))\u000d\u000a    (fp_line (start -0.19 -1.42) (end 8.81 -1.42) (layer "F.Fab") (width 0.1) (tstamp b2cac11a-5f3b-43d7-88e5-8d0241ac6453))\u000d\u000a    (fp_line (start -1.19 -0.42) (end -0.19 -1.42) (layer "F.Fab") (width 0.1) (tstamp c9ab240f-b898-4113-9b58-995237cd751a))\u000d\u000a    (pad "1" thru_hole rect locked (at 0 0) (size 1.7 1.7) (drill 1) (layers *.Cu *.Mask)\u000d\u000a      (net 21 "Net-(U10-Pad1)") (pinfunction "G") (pintype "input") (tstamp 88e4f832-79d6-4c54-9ce3-4328dcb9d5b5))\u000d\u000a    (pad "2" thru_hole circle locked (at 0 2.54) (size 1.7 1.7) (drill 1) (layers *.Cu *.Mask)\u000d\u000a      (net 22 "Net-(U10-Pad2)") (pinfunction "F") (pintype "input") (tstamp d27bd75e-eeb9-4d8b-bfdb-bddce4b94b6c))\u000d\u000a    (pad "3" thru_hole circle locked (at 0 5.08) (size 1.7 1.7) (drill 1) (layers *.Cu *.Mask)\u000d\u000a      (net 9 "Net-(Q4-Pad2)") (pinfunction "CA") (pintype "input") (tstamp 899a4caf-0563-4c2a-9bca-5aa28747ef75))\u000d\u000a    (pad "4" thru_hole circle locked (at 0 7.62) (size 1.7 1.7) (drill 1) (layers *.Cu *.Mask)\u000d\u000a      (net 23 "Net-(U10-Pad4)") (pinfunction "E") (pintype "input") (tstamp 6dc32d24-5ef0-4c0e-ad26-4d147b147b28))\u000d\u000a    (pad "5" thru_hole circle locked (at 0 10.16) (size 1.7 1.7) (drill 1) (layers *.Cu *.Mask)\u000d\u000a      (net 24 "Net-(U10-Pad5)") (pinfunction "D") (pintype "input") (tstamp b70f4be0-be81-40f1-b237-a16be3740211))\u000d\u000a    (pad "6" thru_hole circle locked (at 7.62 10.16) (size 1.7 1.7) (drill 1) (layers *.Cu *.Mask)\u000d\u000a      (net 25 "Net-(U10-Pad6)") (pinfunction "DP") (pintype "input") (tstamp b285d77c-3eef-4763-b6e4-d7759b529dfd))\u000d\u000a    (pad "7" thru_hole circle locked (at 7.62 7.62) (size 1.7 1.7) (drill 1) (layers *.Cu *.Mask)\u000d\u000a      (net 26 "Net-(U10-Pad7)") (pinfunction "C") (pintype "input") (tstamp 856c0384-2dfc-47d2-a66c-a145c3149f14))\u000d\u000a    (pad "8" thru_hole circle locked (at 7.62 5.08) (size 1.7 1.7) (drill 1) (layers *.Cu *.Mask)\u000d\u000a      (net 9 "Net-(Q4-Pad2)") (pinfunction "CA") (pintype "input") (tstamp e4d0483b-1c21-4fb6-87dd-47e636746c0e))\u000d\u000a    (pad "9" thru_hole circle locked (at 7.62 2.54) (size 1.7 1.7) (drill 1) (layers *.Cu *.Mask)\u000d\u000a      (net 27 "Net-(U10-Pad9)") (pinfunction "B") (pintype "input") (tstamp 4263a0e8-33fc-439f-9b56-889a4f5d7b26))\u000d\u000a    (pad "10" thru_hole circle locked (at 7.62 0) (size 1.7 1.7) (drill 1) (layers *.Cu *.Mask)\u000d\u000a      (net 28 "Net-(U10-Pad10)") (pinfunction "A") (pintype "input") (tstamp 4223805d-8db1-4df1-b73a-3d99f37f1701))\u000d\u000a    (model "${KICAD6_3DMODEL_DIR}/Display_7Segment.3dshapes/Sx39-1xxxxx.wrl"\u000d\u000a      (offset (xyz 0 0 0))\u000d\u000a      (scale (xyz 1 1 1))\u000d\u000a      (rotate (xyz 0 0 0))\u000d\u000a    )\u000d\u000a  )\u000d\u000a\u000d\u000a  (footprint "Package_SO:SOIC-24W_7.5x15.4mm_P1.27mm" (layer "B.Cu")\u000d\u000a    (tedit 5D9F72B1) (tstamp c6d0e6be-376d-4beb-9794-508920a2265a)\u000d\u000a    (at 90.772072 27.9146)\u000d\u000a    (descr "SOIC, 24 Pin (JEDEC MS-013AD, https://www.analog.com/media/en/package-pcb-resources/package/pkg_pdf/soic_wide-rw/RW_24.pdf), generated with kicad-footprint-generator ipc_gullwing_generator.py")\u000d\u000a    (tags "SOIC SO")\u000d\u000a    (property "Sheetfile" "LED_Display_Module.kicad_sch")\u000d\u000a    (property "Sheetname" "LED_Display_Module1")\u000d\u000a    (path "/0ae7d831-a065-4601-9f9d-c26d40fd3d00/afafe8e8-37b6-4ab3-89c3-11cdf2532c63")\u000d\u000a    (attr smd)\u000d\u000a    (fp_text reference "U9" (at 0 8.65) (layer "B.SilkS")\u000d\u000a      (effects (font (size 1 1) (thickness 0.15)) (justify mirror))\u000d\u000a      (tstamp 46aac001-1e0b-4992-9b6b-7fbd6860af0e)\u000d\u000a    )\u000d\u000a    (fp_text value "SAA1064T" (at 0 -8.65) (layer "B.Fab")\u000d\u000a      (effects (font (size 1 1) (thickness 0.15)) (justify mirror))\u000d\u000a      (tstamp 5c60e2fd-e25b-42a0-9a7e-d020a279558a)\u000d\u000a    )\u000d\u000a    (fp_text user "${REFERENCE}" (at 0 0) (layer "B.Fab")\u000d\u000a      (effects (font (size 1 1) (thickness 0.15)) (justify mirror))\u000d\u000a      (tstamp 5ed637ac-40ac-434c-a406-609e25d3658d)\u000d\u000a    )\u000d\u000a    (fp_line (start 3.86 -7.81) (end 3.86 -7.545) (layer "B.SilkS") (width 0.12) (tstamp 3662e68b-207e-47a3-930c-038dfd8202b6))\u000d\u000a    (fp_line (start -3.86 7.545) (end -5.675 7.545) (layer "B.SilkS") (width 0.12) (tstamp 56801e6d-c4ab-4f7b-8289-2119a52fa227))\u000d\u000a    (fp_line (start -3.86 -7.81) (end -3.86 -7.545) (layer "B.SilkS") (width 0.12) (tstamp 58c4b7f1-3bfe-4269-af43-3ce726a108d9))\u000d\u000a    (fp_line (start 0 -7.81) (end -3.86 -7.81) (layer "B.SilkS") (width 0.12) (tstamp 5a29cdb1-72f4-490b-b940-70ed3bd8dac4))\u000d\u000a    (fp_line (start 0 7.81) (end -3.86 7.81) (layer "B.SilkS") (width 0.12) (tstamp 8f2a6709-854c-4caf-959b-d289d2962128))\u000d\u000a    (fp_line (start 0 -7.81) (end 3.86 -7.81) (layer "B.SilkS") (width 0.12) (tstamp 95376300-f16d-43b2-b149-df8f49eb2782))\u000d\u000a    (fp_line (start 0 7.81) (end 3.86 7.81) (layer "B.SilkS") (width 0.12) (tstamp a8b5a69a-24fc-4f3a-af15-1ced0fb0d73b))\u000d\u000a    (fp_line (start 3.86 7.81) (end 3.86 7.545) (layer "B.SilkS") (width 0.12) (tstamp b830f01d-0d9c-451a-9ac4-3e5744deb516))\u000d\u000a    (fp_line (start -3.86 7.81) (end -3.86 7.545) (layer "B.SilkS") (width 0.12) (tstamp cf06bbbc-3fa0-42b7-9a99-642ec3689891))\u000d\u000a    (fp_line (start 5.93 -7.95) (end 5.93 7.95) (layer "B.CrtYd") (width 0.05) (tstamp 17a6bac3-e9f6-495e-be83-418646662ace))\u000d\u000a    (fp_line (start -5.93 7.95) (end -5.93 -7.95) (layer "B.CrtYd") (width 0.05) (tstamp 7caf98e4-1466-4c74-8252-9e06859f5812))\u000d\u000a    (fp_line (start 5.93 7.95) (end -5.93 7.95) (layer "B.CrtYd") (width 0.05) (tstamp acb025c1-3784-47d1-b5e9-772bcda8c549))\u000d\u000a    (fp_line (start -5.93 -7.95) (end 5.93 -7.95) (layer "B.CrtYd") (width 0.05) (tstamp b2543723-4d00-4120-adfe-906c6c0f4cae))\u000d\u000a    (fp_line (start 3.75 -7.7) (end -3.75 -7.7) (layer "B.Fab") (width 0.1) (tstamp 8dcf91a3-1716-406f-975d-a5e4d347a64c))\u000d\u000a    (fp_line (start -3.75 6.7) (end -2.75 7.7) (layer "B.Fab") (width 0.1) (tstamp 94b9946a-78fd-4f36-83ff-62bd392ae616))\u000d\u000a    (fp_line (start -3.75 -7.7) (end -3.75 6.7) (layer "B.Fab") (width 0.1) (tstamp a067890f-6be8-49e9-b75d-ff2c32452685))\u000d\u000a    (fp_line (start -2.75 7.7) (end 3.75 7.7) (layer "B.Fab") (width 0.1) (tstamp a8ed9f4d-0385-4ec2-831d-b6c7165c148a))\u000d\u000a    (fp_line (start 3.75 7.7) (end 3.75 -7.7) (layer "B.Fab") (width 0.1) (tstamp f83c7689-506f-4228-94dd-e1c4dd714e67))\u000d\u000a    (pad "1" smd roundrect locked (at -4.65 6.985) (size 2.05 0.6) (layers "B.Cu" "B.Paste" "B.Mask") (roundrect_rratio 0.25)\u000d\u000a      (net 10 "Net-(R7-Pad2)") (pinfunction "ADR") (pintype "input") (tstamp 86a34ff8-9697-4394-b32e-9c903027c8af))\u000d\u000a    (pad "2" smd roundrect locked (at -4.65 5.715) (size 2.05 0.6) (layers "B.Cu" "B.Paste" "B.Mask") (roundrect_rratio 0.25)\u000d\u000a      (net 3 "Net-(C3-Pad1)") (pinfunction "Cext") (pintype "passive") (tstamp 7d86ba37-b98f-40a5-b35f-96db8417b185))\u000d\u000a    (pad "3" smd roundrect locked (at -4.65 4.445) (size 2.05 0.6) (layers "B.Cu" "B.Paste" "B.Mask") (roundrect_rratio 0.25)\u000d\u000a      (net 22 "Net-(U10-Pad2)") (pinfunction "P8_F") (pintype "output") (tstamp b2fcabdc-443d-41f9-9892-34509b22b3c4))\u000d\u000a    (pad "4" smd roundrect locked (at -4.65 3.175) (size 2.05 0.6) (layers "B.Cu" "B.Paste" "B.Mask") (roundrect_rratio 0.25)\u000d\u000a      (net 21 "Net-(U10-Pad1)") (pinfunction "P7_G") (pintype "output") (tstamp b03cb553-3709-44f5-9a1e-0bd7ca2daf93))\u000d\u000a    (pad "5" smd roundrect locked (at -4.65 1.905) (size 2.05 0.6) (layers "B.Cu" "B.Paste" "B.Mask") (roundrect_rratio 0.25)\u000d\u000a      (net 24 "Net-(U10-Pad5)") (pinfunction "P6_D") (pintype "output") (tstamp fda0167e-248a-4b89-bf7b-490df46aeb7d))\u000d\u000a    (pad "6" smd roundrect locked (at -4.65 0.635) (size 2.05 0.6) (layers "B.Cu" "B.Paste" "B.Mask") (roundrect_rratio 0.25)\u000d\u000a      (net 23 "Net-(U10-Pad4)") (pinfunction "P5_E") (pintype "output") (tstamp 3a362cc7-5245-4ed2-8f66-3a6d74eaba39))\u000d\u000a    (pad "7" smd roundrect locked (at -4.65 -0.635) (size 2.05 0.6) (layers "B.Cu" "B.Paste" "B.Mask") (roundrect_rratio 0.25)\u000d\u000a      (net 26 "Net-(U10-Pad7)") (pinfunction "P4_C") (pintype "output") (tstamp ee94ab47-8315-46a5-bfc7-60550df5879d))\u000d\u000a    (pad "8" smd roundrect locked (at -4.65 -1.905) (size 2.05 0.6) (layers "B.Cu" "B.Paste" "B.Mask") (roundrect_rratio 0.25)\u000d\u000a      (net 28 "Net-(U10-Pad10)") (pinfunction "P3_A") (pintype "output") (tstamp cac6ef5d-79dc-46ad-ba83-77cb1377c287))\u000d\u000a    (pad "9" smd roundrect locked (at -4.65 -3.175) (size 2.05 0.6) (layers "B.Cu" "B.Paste" "B.Mask") (roundrect_rratio 0.25)\u000d\u000a      (net 25 "Net-(U10-Pad6)") (pinfunction "P2_P") (pintype "output") (tstamp b6a3e709-356a-4a55-ac00-07ba73afac37))\u000d\u000a    (pad "10" smd roundrect locked (at -4.65 -4.445) (size 2.05 0.6) (layers "B.Cu" "B.Paste" "B.Mask") (roundrect_rratio 0.25)\u000d\u000a      (net 27 "Net-(U10-Pad9)") (pinfunction "P1_B") (pintype "output") (tstamp ba3f68df-a80d-4363-9b28-2b49507e87bd))\u000d\u000a    (pad "11" smd roundrect locked (at -4.65 -5.715) (size 2.05 0.6) (layers "B.Cu" "B.Paste" "B.Mask") (roundrect_rratio 0.25)\u000d\u000a      (net 8 "Net-(Q4-Pad1)") (pinfunction "MX1") (pintype "output") (tstamp ee4527a8-96f7-423b-b0eb-5c3b1bed75f9))\u000d\u000a    (pad "12" smd roundrect locked (at -4.65 -6.985) (size 2.05 0.6) (layers "B.Cu" "B.Paste" "B.Mask") (roundrect_rratio 0.25)\u000d\u000a      (net 1 "GND") (pinfunction "GND") (pintype "power_in") (tstamp 845f389f-ac5c-4af4-aa4f-3b1355707a5f))\u000d\u000a    (pad "13" smd roundrect locked (at 4.65 -6.985) (size 2.05 0.6) (layers "B.Cu" "B.Paste" "B.Mask") (roundrect_rratio 0.25)\u000d\u000a      (net 2 "+5V") (pinfunction "5V") (pintype "power_in") (tstamp 2a507df7-40c5-4523-b0fd-269cea55efb9))\u000d\u000a    (pad "14" smd roundrect locked (at 4.65 -5.715) (size 2.05 0.6) (layers "B.Cu" "B.Paste" "B.Mask") (roundrect_rratio 0.25)\u000d\u000a      (net 6 "Net-(Q3-Pad1)") (pinfunction "MX2") (pintype "output") (tstamp 7d283b62-f314-41a0-b56b-d307f2ebfa85))\u000d\u000a    (pad "15" smd roundrect locked (at 4.65 -4.445) (size 2.05 0.6) (layers "B.Cu" "B.Paste" "B.Mask") (roundrect_rratio 0.25)\u000d\u000a      (net 19 "Net-(U6-Pad9)") (pinfunction "P9_B") (pintype "output") (tstamp 0f6b89db-12ed-4dac-b3ce-819a49798117))\u000d\u000a    (pad "16" smd roundrect locked (at 4.65 -3.175) (size 2.05 0.6) (layers "B.Cu" "B.Paste" "B.Mask") (roundrect_rratio 0.25)\u000d\u000a      (net 17 "Net-(U6-Pad6)") (pinfunction "P10_P") (pintype "output") (tstamp 87110cd9-2ac8-40e0-9e87-2e8196cde92a))\u000d\u000a    (pad "17" smd roundrect locked (at 4.65 -1.905) (size 2.05 0.6) (layers "B.Cu" "B.Paste" "B.Mask") (roundrect_rratio 0.25)\u000d\u000a      (net 20 "Net-(U6-Pad10)") (pinfunction "P11_A") (pintype "output") (tstamp da710602-5c6f-4ba5-b461-48eb0116bbbe))\u000d\u000a    (pad "18" smd roundrect locked (at 4.65 -0.635) (size 2.05 0.6) (layers "B.Cu" "B.Paste" "B.Mask") (roundrect_rratio 0.25)\u000d\u000a      (net 18 "Net-(U6-Pad7)") (pinfunction "P12_C") (pintype "output") (tstamp 0ef32369-e37b-408d-9752-7cbb993d9abb))\u000d\u000a    (pad "19" smd roundrect locked (at 4.65 0.635) (size 2.05 0.6) (layers "B.Cu" "B.Paste" "B.Mask") (roundrect_rratio 0.25)\u000d\u000a      (net 15 "Net-(U6-Pad4)") (pinfunction "P13_E") (pintype "output") (tstamp f0d5ae26-c535-4a37-9220-b3d08bfeda2f))\u000d\u000a    (pad "20" smd roundrect locked (at 4.65 1.905) (size 2.05 0.6) (layers "B.Cu" "B.Paste" "B.Mask") (roundrect_rratio 0.25)\u000d\u000a      (net 16 "Net-(U6-Pad5)") (pinfunction "P14_D") (pintype "output") (tstamp 33b6dbe8-d555-4f35-a63c-27c75fa09ca7))\u000d\u000a    (pad "21" smd roundrect locked (at 4.65 3.175) (size 2.05 0.6) (layers "B.Cu" "B.Paste" "B.Mask") (roundrect_rratio 0.25)\u000d\u000a      (net 13 "Net-(U6-Pad1)") (pinfunction "P15_G") (pintype "output") (tstamp 74d2d2c1-d0d5-412f-ab06-bb67df0a3900))\u000d\u000a    (pad "22" smd roundrect locked (at 4.65 4.445) (size 2.05 0.6) (layers "B.Cu" "B.Paste" "B.Mask") (roundrect_rratio 0.25)\u000d\u000a      (net 14 "Net-(U6-Pad2)") (pinfunction "P16_F") (pintype "output") (tstamp 01caafb3-af8a-4642-870c-c290b286d040))\u000d\u000a    (pad "23" smd roundrect locked (at 4.65 5.715) (size 2.05 0.6) (layers "B.Cu" "B.Paste" "B.Mask") (roundrect_rratio 0.25)\u000d\u000a      (net 12 "Net-(R10-Pad1)") (pinfunction "SDA") (pintype "bidirectional") (tstamp 0648b195-3f37-49a2-a952-4c5886b521de))\u000d\u000a    (pad "24" smd roundrect locked (at 4.65 6.985) (size 2.05 0.6) (layers "B.Cu" "B.Paste" "B.Mask") (roundrect_rratio 0.25)\u000d\u000a      (net 11 "Net-(R9-Pad2)") (pinfunction "SCL") (pintype "input") (tstamp 2ca148b4-658e-4a63-ab5c-2e293c8a2284))\u000d\u000a    (model "${KICAD6_3DMODEL_DIR}/Package_SO.3dshapes/SOIC-24W_7.5x15.4mm_P1.27mm.wrl"\u000d\u000a      (offset (xyz 0 0 0))\u000d\u000a      (scale (xyz 1 1 1))\u000d\u000a      (rotate (xyz 0 0 0))\u000d\u000a    )\u000d\u000a  )\u000d\u000a\u000d\u000a  (segment (start 84.513472 37.5818) (end 86.774072 37.5818) (width 0.25) (layer "F.Cu") (net 3) (tstamp 599a492e-17f0-4af9-b2ca-fa22edc24468))\u000d\u000a  (segment (start 86.774072 37.5818) (end 86.809672 37.5462) (width 0.25) (layer "F.Cu") (net 3) (tstamp a3da65da-9076-484d-b66b-71a5ee5ab711))\u000d\u000a  (segment (start 84.513472 37.5818) (end 83.482272 36.5506) (width 0.25) (layer "F.Cu") (net 3) (tstamp e79779ee-fb2f-4ffd-868d-9962dd2e217f))\u000d\u000a  (via (at 83.482272 36.5506) (size 0.8) (drill 0.4) (layers "F.Cu" "B.Cu") (net 3) (tstamp dc5c19d3-0120-430e-8808-35447496fc34))\u000d\u000a  (segment (start 84.752272 33.6296) (end 86.122072 33.6296) (width 0.25) (layer "B.Cu") (net 3) (tstamp 965c3ab0-ead0-45b5-aa0b-84a31daf5349))\u000d\u000a  (segment (start 83.482272 36.5506) (end 83.482272 34.8996) (width 0.25) (layer "B.Cu") (net 3) (tstamp b8b8b7a6-0b6b-4455-9c1f-458c2f97ec3e))\u000d\u000a  (segment (start 83.482272 34.8996) (end 84.752272 33.6296) (width 0.25) (layer "B.Cu") (net 3) (tstamp def23227-8092-48f8-9976-4a77fd8460b4))\u000d\u000a  (segment (start 105.671672 39.558) (end 101.564772 39.558) (width 0.25) (layer "F.Cu") (net 6) (tstamp 6504319e-3969-4dcd-9101-4d6ea02f9881))\u000d\u000a  (segment (start 105.707272 39.5224) (end 105.671672 39.558) (width 0.25) (layer "F.Cu") (net 6) (tstamp e586f099-f85b-4d05-95b3-b2032dc83fc8))\u000d\u000a  (via (at 105.707272 39.5224) (size 0.8) (drill 0.4) (layers "F.Cu" "B.Cu") (net 6) (tstamp 84537109-1580-4015-8fa5-f90d472515f5))\u000d\u000a  (segment (start 105.707272 22.7076) (end 105.707272 39.5224) (width 0.25) (layer "B.Cu") (net 6) (tstamp 442442e3-dd8f-432b-9a97-50845b673907))\u000d\u000a  (segment (start 95.422072 22.1996) (end 105.199272 22.1996) (width 0.25) (layer "B.Cu") (net 6) (tstamp e7d5edb7-741d-481a-b321-a5133c1136c9))\u000d\u000a  (segment (start 105.199272 22.1996) (end 105.707272 22.7076) (width 0.25) (layer "B.Cu") (net 6) (tstamp ed86cab1-7ea7-4af1-8d35-e61ee909a16a))\u000d\u000a  (segment (start 103.929772 28.9819) (end 111.549772 28.9819) (width 0.25) (layer "F.Cu") (net 7) (tstamp 2710b0dc-4988-4f9b-886e-4f713a2f994e))\u000d\u000a  (segment (start 112.724283 30.156411) (end 111.549772 28.9819) (width 0.25) (layer "F.Cu") (net 7) (tstamp 287af610-a7f0-46d3-bc77-a415b3e86436))\u000d\u000a  (segment (start 88.943272 29.0073) (end 90.308761 27.641811) (width 0.25) (layer "F.Cu") (net 7) (tstamp 6026b259-87bd-4b24-81a7-b8d2406dfd51))\u000d\u000a  (segment (start 102.589683 27.641811) (end 103.929772 28.9819) (width 0.25) (layer "F.Cu") (net 7) (tstamp 69f9f0e3-d77f-4bf0-8ed3-b38e771ecea2))\u000d\u000a  (segment (start 101.564772 37.658) (end 109.614682 37.658) (width 0.25) (layer "F.Cu") (net 7) (tstamp 6ad7b045-fdbe-497d-9fe9-c3e9360432f3))\u000d\u000a  (segment (start 109.614682 37.658) (end 112.724283 34.548399) (width 0.25) (layer "F.Cu") (net 7) (tstamp 716f56e9-c1db-49df-99d2-3b1b1e17a425))\u000d\u000a  (segment (start 81.323272 29.0073) (end 88.943272 29.0073) (width 0.25) (layer "F.Cu") (net 7) (tstamp c5579cb8-b149-46ce-9bf9-bcf989b801ea))\u000d\u000a  (segment (start 90.308761 27.641811) (end 102.589683 27.641811) (width 0.25) (layer "F.Cu") (net 7) (tstamp e66e2964-f8bd-41e0-8686-593f140c62ea))\u000d\u000a  (segment (start 112.724283 34.548399) (end 112.724283 30.156411) (width 0.25) (layer "F.Cu") (net 7) (tstamp f4c82a0a-5b89-41b3-874b-6cbfb177231e))\u000d\u000a  (segment (start 77.005272 37.5158) (end 79.105572 37.5158) (width 0.25) (layer "F.Cu") (net 8) (tstamp 46812a61-76ee-4003-8eb4-c2d49b2c321b))\u000d\u000a  (segment (start 79.105572 37.5158) (end 79.115772 37.5056) (width 0.25) (layer "F.Cu") (net 8) (tstamp 6c063678-40d3-462b-83e7-e1ab161d6e02))\u000d\u000a  (via (at 77.005272 37.5158) (size 0.8) (drill 0.4) (layers "F.Cu" "B.Cu") (net 8) (tstamp 3d0ee8ff-30a3-4eea-991e-fdca2fa91fef))\u000d\u000a  (segment (start 76.016741 36.527269) (end 77.005272 37.5158) (width 0.25) (layer "B.Cu") (net 8) (tstamp 10c1e0be-bf5a-4ad6-bc55-1e285d00f4e1))\u000d\u000a  (segment (start 77.029955 22.1996) (end 76.016741 23.212814) (width 0.25) (layer "B.Cu") (net 8) (tstamp 49b854ae-b1ce-4eb6-8476-00a140f56ecc))\u000d\u000a  (segment (start 86.122072 22.1996) (end 77.029955 22.1996) (width 0.25) (layer "B.Cu") (net 8) (tstamp 821e0516-b8fa-4d22-bb03-4acb347be185))\u000d\u000a  (segment (start 76.016741 23.212814) (end 76.016741 36.527269) (width 0.25) (layer "B.Cu") (net 8) (tstamp c864ce9c-fc22-490e-8c99-b0bef972aff8))\u000d\u000a  (segment (start 78.783272 28.8798) (end 77.768272 28.8798) (width 0.25) (layer "F.Cu") (net 9) (tstamp 06a06b89-a166-43c0-8bcc-f88dbc9f2fea))\u000d\u000a  (segment (start 68.826472 30.2016) (end 70.020772 29.0073) (width 0.25) (layer "F.Cu") (net 9) (tstamp 3cbd3b44-101b-4d74-a40d-f6027eba5f0e))\u000d\u000a  (segment (start 80.085283 30.181811) (end 78.783272 28.8798) (width 0.25) (layer "F.Cu") (net 9) (tstamp 4feb73de-f4cf-43d2-9a0a-a4ab59b35281))\u000d\u000a  (segment (start 77.768272 28.8798) (end 77.640772 29.0073) (width 0.25) (layer "F.Cu") (net 9) (tstamp 62e050c2-0109-4af3-a8cf-6e73d982de24))\u000d\u000a  (segment (start 92.626772 28.9819) (end 100.246772 28.9819) (width 0.25) (layer "F.Cu") (net 9) (tstamp 6f2fff63-c0ae-42a7-8fda-80df90098ba8))\u000d\u000a  (segment (start 70.020772 29.0073) (end 77.640772 29.0073) (width 0.25) (layer "F.Cu") (net 9) (tstamp 7cd9c5b3-1e55-4ea9-ba90-dc1eb252d7c2))\u000d\u000a  (segment (start 91.413761 30.181811) (end 80.085283 30.181811) (width 0.25) (layer "F.Cu") (net 9) (tstamp 7e2e87ca-e3e0-4998-a435-0001b4d1a5d0))\u000d\u000a  (segment (start 91.413761 30.181811) (end 92.588272 29.0073) (width 0.25) (layer "F.Cu") (net 9) (tstamp 8596502d-8bf2-43cf-9746-64b6796d4706))\u000d\u000a  (segment (start 68.826472 34.55401) (end 68.826472 30.2016) (width 0.25) (layer "F.Cu") (net 9) (tstamp 9f6db98a-32fc-437b-bfa7-e596e549f769))\u000d\u000a  (segment (start 73.678062 39.4056) (end 68.826472 34.55401) (width 0.25) (layer "F.Cu") (net 9) (tstamp bc126905-ecd9-4069-8bde-ee6c9b566be2))\u000d\u000a  (segment (start 79.115772 39.4056) (end 73.678062 39.4056) (width 0.25) (layer "F.Cu") (net 9) (tstamp ed0c3bb7-369d-4bab-a285-89363237f7d4))\u000d\u000a  (segment (start 87.569772 36.3474) (end 88.816272 37.5939) (width 0.25) (layer "F.Cu") (net 10) (tstamp 4de4edc5-8c73-436e-a233-722876daf014))\u000d\u000a  (segment (start 90.797472 37.5939) (end 88.816272 37.5939) (width 0.25) (layer "F.Cu") (net 10) (tstamp a83e29ae-5261-43b7-bd46-9da0a3bc6e9f))\u000d\u000a  (segment (start 86.885872 36.3474) (end 87.569772 36.3474) (width 0.25) (layer "F.Cu") (net 10) (tstamp d65a3e25-5efd-4c6a-af9d-84d578f4bcd3))\u000d\u000a  (via (at 86.885872 36.3474) (size 0.8) (drill 0.4) (layers "F.Cu" "B.Cu") (net 10) (tstamp cc50947b-021e-4b04-bd5c-066d40b0f999))\u000d\u000a  (segment (start 86.122072 34.8996) (end 86.122072 35.5836) (width 0.25) (layer "B.Cu") (net 10) (tstamp 1c7eef20-f9ed-4038-b3e7-ee0f766a7c9c))\u000d\u000a  (segment (start 86.122072 35.5836) (end 86.885872 36.3474) (width 0.25) (layer "B.Cu") (net 10) (tstamp 2de51a56-dda1-4191-80db-db51783aa5a7))\u000d\u000a  (segment (start 97.426872 34.8742) (end 95.523772 34.8742) (width 0.25) (layer "F.Cu") (net 11) (tstamp b6fe3a71-740e-4b6e-879d-db105b7ea3fa))\u000d\u000a  (segment (start 95.523772 34.8742) (end 92.804072 37.5939) (width 0.25) (layer "F.Cu") (net 11) (tstamp baee4e20-4d98-4722-8c1b-2023c61b9a5b))\u000d\u000a  (via (at 97.426872 34.8742) (size 0.8) (drill 0.4) (layers "F.Cu" "B.Cu") (net 11) (tstamp 46627770-6e48-4589-8299-81f7ffc3c5e0))\u000d\u000a  (segment (start 95.422072 34.8996) (end 97.401472 34.8996) (width 0.25) (layer "B.Cu") (net 11) (tstamp 52901490-1d05-4d37-b7f2-eb4906201c4f))\u000d\u000a  (segment (start 97.401472 34.8996) (end 97.426872 34.8742) (width 0.25) (layer "B.Cu") (net 11) (tstamp 9e988192-965e-4fd3-a211-fdc14251ac9a))\u000d\u000a  (segment (start 95.731786 37.5939) (end 94.836072 37.5939) (width 0.25) (layer "F.Cu") (net 12) (tstamp 2c151088-154b-4b82-8d67-7c008f65bbe0))\u000d\u000a  (segment (start 98.544472 34.781214) (end 95.731786 37.5939) (width 0.25) (layer "F.Cu") (net 12) (tstamp 8ca87af1-3249-44be-8606-be6aa02fd566))\u000d\u000a  (segment (start 98.544472 33.6296) (end 98.544472 34.781214) (width 0.25) (layer "F.Cu") (net 12) (tstamp c1ec8867-13be-4996-8f5b-a28ba4c55ed2))\u000d\u000a  (via (at 98.544472 33.6296) (size 0.8) (drill 0.4) (layers "F.Cu" "B.Cu") (net 12) (tstamp 68fd91d0-84d3-41a7-b151-b77717faf5b8))\u000d\u000a  (segment (start 95.422072 33.6296) (end 98.544472 33.6296) (width 0.25) (layer "B.Cu") (net 12) (tstamp 6bf4be3b-02fc-47e7-8c79-3793d8ef240f))\u000d\u000a  (segment (start 93.762783 25.101811) (end 101.357261 25.101811) (width 0.25) (layer "F.Cu") (net 13) (tstamp 0c7aef7c-3f4b-4ed0-bee9-04bca561bc7c))\u000d\u000a  (segment (start 92.588272 23.9273) (end 93.762783 25.101811) (width 0.25) (layer "F.Cu") (net 13) (tstamp 119925c6-c9d1-418c-a6d0-314d76d95cb6))\u000d\u000a  (segment (start 102.557172 23.9019) (end 103.929772 23.9019) (width 0.25) (layer "F.Cu") (net 13) (tstamp 66daa9c4-81b5-4c79-93e9-0eaaffc1b8b3))\u000d\u000a  (segment (start 101.357261 25.101811) (end 102.557172 23.9019) (width 0.25) (layer "F.Cu") (net 13) (tstamp b47620ec-0532-491b-885a-8a0f1e58f68f))\u000d\u000a  (segment (start 105.104283 25.076411) (end 103.929772 23.9019) (width 0.25) (layer "B.Cu") (net 13) (tstamp 540e4c38-5822-4595-a23b-94663c32ebcb))\u000d\u000a  (segment (start 105.104283 27.298389) (end 105.104283 25.076411) (width 0.25) (layer "B.Cu") (net 13) (tstamp 6951c564-b9d3-4f4f-8c68-9d43f94032a9))\u000d\u000a  (segment (start 101.592472 31.83721) (end 101.592472 29.65819) (width 0.25) (layer "B.Cu") (net 13) (tstamp 6b0fd331-2888-473d-bb2c-7fa501a04a0c))\u000d\u000a  (segment (start 104.786261 27.616411) (end 105.104283 27.298389) (width 0.25) (layer "B.Cu") (net 13) (tstamp 731db568-f9b7-41b3-810f-1b62b436e4a4))\u000d\u000a  (segment (start 100.733271 32.696411) (end 101.592472 31.83721) (width 0.25) (layer "B.Cu") (net 13) (tstamp c859294f-d886-4fe2-9c45-bcc270f77b66))\u000d\u000a  (segment (start 101.592472 29.65819) (end 103.634251 27.616411) (width 0.25) (layer "B.Cu") (net 13) (tstamp dcf896f2-e6c5-4d01-91b3-8b533ee2eb4d))\u000d\u000a  (segment (start 99.760273 32.696411) (end 100.733271 32.696411) (width 0.25) (layer "B.Cu") (net 13) (tstamp deb6e52d-1996-4f59-a952-5979df2bc57c))\u000d\u000a  (segment (start 95.422072 31.0896) (end 98.153462 31.0896) (width 0.25) (layer "B.Cu") (net 13) (tstamp e1bf74c4-b21e-45ae-a2be-cf676c8d762d))\u000d\u000a  (segment (start 98.153462 31.0896) (end 99.760273 32.696411) (width 0.25) (layer "B.Cu") (net 13) (tstamp ecc37928-9a85-4b3f-b715-554abe841a22))\u000d\u000a  (segment (start 103.634251 27.616411) (end 104.786261 27.616411) (width 0.25) (layer "B.Cu") (net 13) (tstamp edca2630-bae7-4006-a421-909bb8388908))\u000d\u000a  (segment (start 103.205272 25.7174) (end 102.085555 25.7174) (width 0.25) (layer "F.Cu") (net 14) (tstamp 126a7e02-e47b-416d-b71f-406ddad48888))\u000d\u000a  (segment (start 103.929772 26.4419) (end 103.205272 25.7174) (width 0.25) (layer "F.Cu") (net 14) (tstamp 8edaa6ca-62ae-407e-9b6b-834f15f337c3))\u000d\u000a  (via (at 102.085555 25.7174) (size 0.8) (drill 0.4) (layers "F.Cu" "B.Cu") (net 14) (tstamp 2328946f-f169-48b0-b196-265562b5e371))\u000d\u000a  (segment (start 93.801283 34.548399) (end 93.113271 35.236411) (width 0.25) (layer "B.Cu") (net 14) (tstamp 0bab6bc1-21e5-431a-a138-965f36a8236e))\u000d\u000a  (segment (start 96.483144 26.6446) (end 92.829472 26.6446) (width 0.25) (layer "B.Cu") (net 14) (tstamp 1ea12514-67ca-49ac-b62c-5b9d5fa84a97))\u000d\u000a  (segment (start 97.860355 25.267389) (end 96.483144 26.6446) (width 0.25) (layer "B.Cu") (net 14) (tstamp 2dc5044f-1c6c-4ad2-b528-0294287d4360))\u000d\u000a  (segment (start 92.099483 35.236411) (end 91.452261 34.589189) (width 0.25) (layer "B.Cu") (net 14) (tstamp 2fc89e16-6d0b-4db2-9cba-46e06813e611))\u000d\u000a  (segment (start 102.085555 25.7174) (end 101.635544 25.267389) (width 0.25) (layer "B.Cu") (net 14) (tstamp 36892208-a599-422b-99a0-1e58c396def3))\u000d\u000a  (segment (start 93.113271 35.236411) (end 92.099483 35.236411) (width 0.25) (layer "B.Cu") (net 14) (tstamp 4b5225d9-5be6-4129-b054-bd15ba3c546f))\u000d\u000a  (segment (start 94.964789 32.3596) (end 93.801283 33.523106) (width 0.25) (layer "B.Cu") (net 14) (tstamp 596a1e81-5ffa-4f9a-95de-74a07a83cb7b))\u000d\u000a  (segment (start 91.452261 27.616411) (end 92.626772 26.4419) (width 0.25) (layer "B.Cu") (net 14) (tstamp 812cbb0d-eb38-4ff9-a0da-972dee4429fc))\u000d\u000a  (segment (start 93.801283 33.523106) (end 93.801283 34.548399) (width 0.25) (layer "B.Cu") (net 14) (tstamp 99e95b62-b6d5-4ff6-ad1e-b5b326cb8189))\u000d\u000a  (segment (start 95.422072 32.3596) (end 94.964789 32.3596) (width 0.25) (layer "B.Cu") (net 14) (tstamp 9cc8709b-0492-47c1-8598-83456e6c6eb7))\u000d\u000a  (segment (start 92.829472 26.6446) (end 92.626772 26.4419) (width 0.25) (layer "B.Cu") (net 14) (tstamp a0234068-e1f6-43a8-a25c-8f7b1a9544fa))\u000d\u000a  (segment (start 101.635544 25.267389) (end 97.860355 25.267389) (width 0.25) (layer "B.Cu") (net 14) (tstamp a9440a91-d34a-4dde-abc7-a71695b3af97))\u000d\u000a  (segment (start 91.452261 34.589189) (end 91.452261 27.616411) (width 0.25) (layer "B.Cu") (net 14) (tstamp fa50a1c8-1165-40b0-a896-bc24b9e0cd49))\u000d\u000a  (segment (start 92.626772 31.5219) (end 93.801283 30.347389) (width 0.25) (layer "F.Cu") (net 15) (tstamp 292e30b7-070f-4393-a372-d10721397159))\u000d\u000a  (segment (start 102.755261 30.347389) (end 103.929772 31.5219) (width 0.25) (layer "F.Cu") (net 15) (tstamp 6a28ef48-f666-4d24-936e-7576b7113500))\u000d\u000a  (segment (start 93.801283 30.347389) (end 102.755261 30.347389) (width 0.25) (layer "F.Cu") (net 15) (tstamp c25d1c17-94eb-49e7-9169-d807d1a2bc7e))\u000d\u000a  (segment (start 95.422072 28.5496) (end 94.996 28.5496) (width 0.25) (layer "B.Cu") (net 15) (tstamp 474024b8-0b36-423b-bbf0-f4927e25e242))\u000d\u000a  (segment (start 92.626772 30.918828) (end 92.626772 31.5219) (width 0.25) (layer "B.Cu") (net 15) (tstamp 7528cc18-dc1b-46cd-b5ac-65dce36acc73))\u000d\u000a  (segment (start 94.996 28.5496) (end 92.626772 30.918828) (width 0.25) (layer "B.Cu") (net 15) (tstamp 9da5f763-8e83-404a-8550-fa565d3be6d5))\u000d\u000a  (segment (start 92.626772 34.0619) (end 93.897272 32.7914) (width 0.25) (layer "F.Cu") (net 16) (tstamp 1870a849-c3a0-4173-a5f0-90e41838d7d1))\u000d\u000a  (segment (start 100.880554 32.7914) (end 102.151054 34.0619) (width 0.25) (layer "F.Cu") (net 16) (tstamp 24e84aec-5000-4c0b-86f9-eb02f3ce2eb9))\u000d\u000a  (segment (start 102.151054 34.0619) (end 103.929772 34.0619) (width 0.25) (layer "F.Cu") (net 16) (tstamp 39faf5e3-e539-4b16-8cce-d8f173ff3751))\u000d\u000a  (segment (start 93.897272 32.7914) (end 100.880554 32.7914) (width 0.25) (layer "F.Cu") (net 16) (tstamp 465a8224-31a0-463f-a8c2-b033d08fffdc))\u000d\u000a  (segment (start 93.801283 32.887389) (end 92.626772 34.0619) (width 0.25) (layer "B.Cu") (net 16) (tstamp 473ecd49-f23e-4d49-97b2-c32620795eaf))\u000d\u000a  (segment (start 93.801283 31.014317) (end 93.801283 32.887389) (width 0.25) (layer "B.Cu") (net 16) (tstamp 6489e508-276c-4e50-822c-47b9b15df508))\u000d\u000a  (segment (start 95.422072 29.8196) (end 94.996 29.8196) (width 0.25) (layer "B.Cu") (net 16) (tstamp c124902c-a94f-422b-9513-d4ffcab9bdc2))\u000d\u000a  (segment (start 94.996 29.8196) (end 93.801283 31.014317) (width 0.25) (layer "B.Cu") (net 16) (tstamp fa264016-46b0-4194-8aff-f020f4587c7f))\u000d\u000a  (segment (start 101.440072 35.2552) (end 110.356472 35.2552) (width 0.25) (layer "F.Cu") (net 17) (tstamp 7980dab0-4ddd-4800-96a0-ab7871ea8dca))\u000d\u000a  (segment (start 100.246772 34.0619) (end 101.440072 35.2552) (width 0.25) (layer "F.Cu") (net 17) (tstamp 86ce9496-8943-420c-8568-a96196050ec4))\u000d\u000a  (segment (start 110.356472 35.2552) (end 111.549772 34.0619) (width 0.25) (layer "F.Cu") (net 17) (tstamp 9270173e-0ace-4340-8974-8301de5e1b0a))\u000d\u000a  (segment (start 94.894283 25.267389) (end 92.123883 25.267389) (width 0.25) (layer "B.Cu") (net 17) (tstamp 071fa1f6-7136-4723-8532-4ba41f46816a))\u000d\u000a  (segment (start 91.913285 35.685931) (end 98.622741 35.685931) (width 0.25) (layer "B.Cu") (net 17) (tstamp 38a14706-f5d2-4fe7-88fb-154dac2db6dd))\u000d\u000a  (segment (start 92.123883 25.267389) (end 90.772072 26.6192) (width 0.25) (layer "B.Cu") (net 17) (tstamp 5725bbb4-29bf-4981-930f-4dad93077b81))\u000d\u000a  (segment (start 95.422072 24.7396) (end 94.894283 25.267389) (width 0.25) (layer "B.Cu") (net 17) (tstamp 7cfc6990-29a1-447b-9e34-763ed4ab9eac))\u000d\u000a  (segment (start 90.772072 34.544718) (end 91.913285 35.685931) (width 0.25) (layer "B.Cu") (net 17) (tstamp 9bba45ee-75e9-44e2-b5ed-cdcf6bb7ee3e))\u000d\u000a  (segment (start 98.622741 35.685931) (end 100.246772 34.0619) (width 0.25) (layer "B.Cu") (net 17) (tstamp cab13b89-933a-4cf1-b3f4-f0cf8fdaca2e))\u000d\u000a  (segment (start 90.772072 26.6192) (end 90.772072 34.544718) (width 0.25) (layer "B.Cu") (net 17) (tstamp f7d49e95-6f0f-4691-8e09-e15d818ddae5))\u000d\u000a  (segment (start 100.246772 31.5219) (end 101.421283 32.696411) (width 0.25) (layer "F.Cu") (net 18) (tstamp d018d733-3919-42a5-a3f2-90d496616f92))\u000d\u000a  (segment (start 110.375261 32.696411) (end 111.549772 31.5219) (width 0.25) (layer "F.Cu") (net 18) (tstamp d5aaebf5-eaf9-4ed6-a34a-d708738485b6))\u000d\u000a  (segment (start 101.421283 32.696411) (end 110.375261 32.696411) (width 0.25) (layer "F.Cu") (net 18) (tstamp da0773dc-4f2a-42aa-8bef-a7f496339c23))\u000d\u000a  (segment (start 95.873544 27.305) (end 97.960272 27.305) (width 0.25) (layer "B.Cu") (net 18) (tstamp 0a3f0b58-1ef4-4d01-bdfb-69ef534b44e6))\u000d\u000a  (segment (start 95.848144 27.2796) (end 95.873544 27.305) (width 0.25) (layer "B.Cu") (net 18) (tstamp 4712b78a-52f0-437b-b247-624a30df3016))\u000d\u000a  (segment (start 98.773072 30.0482) (end 100.246772 31.5219) (width 0.25) (layer "B.Cu") (net 18) (tstamp a9cf8ffb-faf0-4c92-9196-ddca122b8a60))\u000d\u000a  (segment (start 98.773072 28.1178) (end 98.773072 30.0482) (width 0.25) (layer "B.Cu") (net 18) (tstamp c4cd962c-9f6a-455b-ae89-3d9b824de6b5))\u000d\u000a  (segment (start 95.422072 27.2796) (end 95.848144 27.2796) (width 0.25) (layer "B.Cu") (net 18) (tstamp f41bb407-1ec7-4d1b-9d91-48bb16bb98b4))\u000d\u000a  (segment (start 97.960272 27.305) (end 98.773072 28.1178) (width 0.25) (layer "B.Cu") (net 18) (tstamp fbf68feb-d68b-4b02-93fe-c4e54200e911))\u000d\u000a  (segment (start 100.246772 26.4419) (end 102.268762 26.4419) (width 0.25) (layer "F.Cu") (net 19) (tstamp 1abc4cee-50ec-457c-82b2-4e047159ba63))\u000d\u000a  (segment (start 103.443273 27.616411) (end 110.375261 27.616411) (width 0.25) (layer "F.Cu") (net 19) (tstamp 53f4f6de-979c-4d1e-9407-0bf73975b7f3))\u000d\u000a  (segment (start 102.268762 26.4419) (end 103.443273 27.616411) (width 0.25) (layer "F.Cu") (net 19) (tstamp 5bcc9dab-cf77-4401-847d-cd4efae3feed))\u000d\u000a  (segment (start 110.375261 27.616411) (end 111.549772 26.4419) (width 0.25) (layer "F.Cu") (net 19) (tstamp 957abacf-4a19-4f41-b6a9-4ac9f1524cf8))\u000d\u000a  (segment (start 99.018062 23.4696) (end 99.760273 22.727389) (width 0.25) (layer "B.Cu") (net 19) (tstamp 06831d7a-d35b-4e68-bc55-2c86b5c8651e))\u000d\u000a  (segment (start 102.810066 25.417297) (end 102.810066 26.017503) (width 0.25) (layer "B.Cu") (net 19) (tstamp 18405469-15ce-47cf-8459-709e40fbf24b))\u000d\u000a  (segment (start 102.810066 26.017503) (end 102.385669 26.4419) (width 0.25) (layer "B.Cu") (net 19) (tstamp 209ea434-e3c7-42f6-9443-94a5427fcf1a))\u000d\u000a  (segment (start 100.774061 22.727389) (end 102.532272 24.4856) (width 0.25) (layer "B.Cu") (net 19) (tstamp 3b1dadf9-4f8a-48af-9c29-34c84df51c9b))\u000d\u000a  (segment (start 95.422072 23.4696) (end 99.018062 23.4696) (width 0.25) (layer "B.Cu") (net 19) (tstamp a7c97909-40e6-4b7e-9ec3-3bf2463bb121))\u000d\u000a  (segment (start 102.532272 24.4856) (end 102.532272 25.139503) (width 0.25) (layer "B.Cu") (net 19) (tstamp ae809102-ba02-4cdf-a9ae-78ddde60f12e))\u000d\u000a  (segment (start 102.385669 26.4419) (end 100.246772 26.4419) (width 0.25) (layer "B.Cu") (net 19) (tstamp d3e7f133-bed2-49e7-ace0-2c0c077ef9ff))\u000d\u000a  (segment (start 99.760273 22.727389) (end 100.774061 22.727389) (width 0.25) (layer "B.Cu") (net 19) (tstamp d4316a4a-171a-4169-bc66-2ad009925934))\u000d\u000a  (segment (start 102.532272 25.139503) (end 102.810066 25.417297) (width 0.25) (layer "B.Cu") (net 19) (tstamp f4d56f6a-532c-43b8-b830-4af0c6750745))\u000d\u000a  (segment (start 111.549772 23.5463) (end 111.549772 23.9019) (width 0.25) (layer "F.Cu") (net 20) (tstamp 3c1f75ab-e1e4-40ca-90f6-d7a4df8ee119))\u000d\u000a  (segment (start 110.756261 22.752789) (end 111.549772 23.5463) (width 0.25) (layer "F.Cu") (net 20) (tstamp 985e0a18-ee65-49c6-8570-fb16a8f1a45c))\u000d\u000a  (segment (start 100.208272 23.9273) (end 101.382783 22.752789) (width 0.25) (layer "F.Cu") (net 20) (tstamp b0d0a17b-a585-4789-8fa3-c86fc5c460c0))\u000d\u000a  (segment (start 101.382783 22.752789) (end 110.756261 22.752789) (width 0.25) (layer "F.Cu") (net 20) (tstamp d0c21546-b9b4-4089-85e7-a9f242d52fcf))\u000d\u000a  (segment (start 95.422072 26.0096) (end 94.996 26.0096) (width 0.25) (layer "B.Cu") (net 20) (tstamp 25102ad3-99c4-4aae-8ac2-77f93d80d960))\u000d\u000a  (segment (start 95.422072 26.0096) (end 96.482426 26.0096) (width 0.25) (layer "B.Cu") (net 20) (tstamp 2b54553a-fb36-445b-9cec-fc8f16763d55))\u000d\u000a  (segment (start 98.184226 24.3078) (end 99.840872 24.3078) (width 0.25) (layer "B.Cu") (net 20) (tstamp 7dee8844-eb29-4005-a053-66d8b8169e04))\u000d\u000a  (segment (start 96.482426 26.0096) (end 98.184226 24.3078) (width 0.25) (layer "B.Cu") (net 20) (tstamp bb04b934-a6ad-4191-a512-21a0742139ee))\u000d\u000a  (segment (start 99.840872 24.3078) (end 100.246772 23.9019) (width 0.25) (layer "B.Cu") (net 20) (tstamp eed9290e-cdf6-4048-be3f-fef58fd3df7a))\u000d\u000a  (segment (start 71.195283 25.101811) (end 78.751261 25.101811) (width 0.25) (layer "F.Cu") (net 21) (tstamp 1a74e4ef-9f04-445e-a4d4-879b5e2f061a))\u000d\u000a  (segment (start 79.925772 23.9273) (end 81.323272 23.9273) (width 0.25) (layer "F.Cu") (net 21) (tstamp 7d8c055d-4eed-4649-b6f4-62afe1b9f5a9))\u000d\u000a  (segment (start 70.020772 23.9273) (end 71.195283 25.101811) (width 0.25) (layer "F.Cu") (net 21) (tstamp c7004714-a632-4445-b0df-bb4644d1bf5f))\u000d\u000a  (segment (start 78.751261 25.101811) (end 79.925772 23.9273) (width 0.25) (layer "F.Cu") (net 21) (tstamp e6daff5c-d445-4c90-98e4-c209d0b5c4d1))\u000d\u000a  (segment (start 86.122072 31.0896) (end 86.548144 31.0896) (width 0.25) (layer "B.Cu") (net 21) (tstamp 1b9e6cbe-0d49-4b33-af4e-cd49844b5613))\u000d\u000a  (segment (start 87.193624 29.17412) (end 85.07148 29.17412) (width 0.25) (layer "B.Cu") (net 21) (tstamp 25ecfd22-2994-4db4-90a4-db66960d7a33))\u000d\u000a  (segment (start 80.836773 27.641811) (end 81.809771 27.641811) (width 0.25) (layer "B.Cu") (net 21) (tstamp 2e003add-11de-4e93-a071-b5045fd0883b))\u000d\u000a  (segment (start 85.07148 29.17412) (end 82.497783 31.747817) (width 0.25) (layer "B.Cu") (net 21) (tstamp 3fc8ce78-5e05-492b-b9ca-2c91f4b40cd4))\u000d\u000a  (segment (start 80.148761 32.099489) (end 80.148761 28.329823) (width 0.25) (layer "B.Cu") (net 21) (tstamp 481b0ffa-255a-4a96-a1a1-acd9df7ea45c))\u000d\u000a  (segment (start 81.809771 32.721811) (end 80.771083 32.721811) (width 0.25) (layer "B.Cu") (net 21) (tstamp 5972b61c-ee8c-4302-bdaf-64b50910d271))\u000d\u000a  (segment (start 87.471592 30.166152) (end 87.471592 29.452088) (width 0.25) (layer "B.Cu") (net 21) (tstamp 6b900f91-1c2f-46e6-8548-1e64269ed6d0))\u000d\u000a  (segment (start 80.771083 32.721811) (end 80.148761 32.099489) (width 0.25) (layer "B.Cu") (net 21) (tstamp 76b8a0c4-a623-4223-89c5-a18b08997b67))\u000d\u000a  (segment (start 87.471592 29.452088) (end 87.193624 29.17412) (width 0.25) (layer "B.Cu") (net 21) (tstamp 99b463fa-93fb-4e7f-b846-0c63d407b071))\u000d\u000a  (segment (start 86.548144 31.0896) (end 87.471592 30.166152) (width 0.25) (layer "B.Cu") (net 21) (tstamp a7e7d53d-eabb-4458-a0ac-8cb853a946d4))\u000d\u000a  (segment (start 82.497783 26.953799) (end 82.497783 25.101811) (width 0.25) (layer "B.Cu") (net 21) (tstamp ba83b4f9-0c65-448f-8bf9-57958081d1f1))\u000d\u000a  (segment (start 80.148761 28.329823) (end 80.836773 27.641811) (width 0.25) (layer "B.Cu") (net 21) (tstamp cbbd5d12-c446-4ef6-8371-110367826033))\u000d\u000a  (segment (start 81.809771 27.641811) (end 82.497783 26.953799) (width 0.25) (layer "B.Cu") (net 21) (tstamp e5cae47f-08c0-442a-88f7-cddd013f061c))\u000d\u000a  (segment (start 82.497783 31.747817) (end 82.497783 32.033799) (width 0.25) (layer "B.Cu") (net 21) (tstamp e7ae7724-e1aa-4f94-adca-a2fe94877edf))\u000d\u000a  (segment (start 82.497783 32.033799) (end 81.809771 32.721811) (width 0.25) (layer "B.Cu") (net 21) (tstamp eadaeb6a-7ae6-4cca-bf72-3793fdafe7eb))\u000d\u000a  (segment (start 82.497783 25.101811) (end 81.323272 23.9273) (width 0.25) (layer "B.Cu") (net 21) (tstamp f71a855f-0883-4f9a-abdd-527e1d00f1a1))\u000d\u000a  (segment (start 80.148761 27.641811) (end 81.323272 26.4673) (width 0.25) (layer "F.Cu") (net 22) (tstamp 1ceb71c4-21b4-4401-8de0-113b18184643))\u000d\u000a  (segment (start 71.195283 27.641811) (end 80.148761 27.641811) (width 0.25) (layer "F.Cu") (net 22) (tstamp 41eb5747-7d60-4068-811f-a84b81efc9dd))\u000d\u000a  (segment (start 70.020772 26.4673) (end 71.195283 27.641811) (width 0.25) (layer "F.Cu") (net 22) (tstamp ab7e4f62-073d-4dfd-8975-5f0733fb7ad5))\u000d\u000a  (segment (start 80.821883 35.261811) (end 79.164272 33.6042) (width 0.25) (layer "B.Cu") (net 22) (tstamp 489603a2-324e-4f8a-a3f5-654f38a063d4))\u000d\u000a  (segment (start 79.392372 26.4673) (end 81.323272 26.4673) (width 0.25) (layer "B.Cu") (net 22) (tstamp 4ab308c6-949e-480a-9256-ae2e59ea6e53))\u000d\u000a  (segment (start 79.164272 33.6042) (end 79.164272 26.6954) (width 0.25) (layer "B.Cu") (net 22) (tstamp 78789e8f-323a-4563-84ea-2f1d8dbe7a11))\u000d\u000a  (segment (start 84.711982 32.3596) (end 81.809771 35.261811) (width 0.25) (layer "B.Cu") (net 22) (tstamp 9c462ac7-496b-4e86-8c4c-cc8067b15b62))\u000d\u000a  (segment (start 81.809771 35.261811) (end 80.821883 35.261811) (width 0.25) (layer "B.Cu") (net 22) (tstamp a3c4da86-37da-4446-ac73-a6caf37ba967))\u000d\u000a  (segment (start 79.164272 26.6954) (end 79.392372 26.4673) (width 0.25) (layer "B.Cu") (net 22) (tstamp c58efe95-928d-4eed-a2d1-8d8e37e3e668))\u000d\u000a  (segment (start 86.122072 32.3596) (end 84.711982 32.3596) (width 0.25) (layer "B.Cu") (net 22) (tstamp e5387369-0d27-43cc-a40d-947a69aae420))\u000d\u000a  (segment (start 79.006261 30.372789) (end 80.180772 31.5473) (width 0.25) (layer "F.Cu") (net 23) (tstamp 222338e8-266e-459a-8d21-fa4a2df7fe9f))\u000d\u000a  (segment (start 71.195283 30.372789) (end 79.006261 30.372789) (width 0.25) (layer "F.Cu") (net 23) (tstamp 45d28d69-fefe-4220-a07c-f9f871cfbecc))\u000d\u000a  (segment (start 70.020772 31.5473) (end 71.195283 30.372789) (width 0.25) (layer "F.Cu") (net 23) (tstamp 8f67863c-02e9-4373-b292-70831c626535))\u000d\u000a  (segment (start 80.180772 31.5473) (end 81.323272 31.5473) (width 0.25) (layer "F.Cu") (net 23) (tstamp 90bd1496-eb69-4815-81df-4aa28d3d1509))\u000d\u000a  (segment (start 86.122072 28.5496) (end 84.320972 28.5496) (width 0.25) (layer "B.Cu") (net 23) (tstamp bdcca09f-b0a5-438e-bbaf-e13000350a48))\u000d\u000a  (segment (start 84.320972 28.5496) (end 81.323272 31.5473) (width 0.25) (layer "B.Cu") (net 23) (tstamp ce4bd8d3-dca0-4cd4-a20f-89c017d60235))\u000d\u000a  (segment (start 70.020772 34.0873) (end 71.195283 32.912789) (width 0.25) (layer "F.Cu") (net 24) (tstamp 09170d5c-39c1-481d-90b1-1628bce7464f))\u000d\u000a  (segment (start 71.195283 32.912789) (end 78.345861 32.912789) (width 0.25) (layer "F.Cu") (net 24) (tstamp 21b2a6c6-243d-43d2-8160-ac786aa9254e))\u000d\u000a  (segment (start 78.345861 32.912789) (end 79.520372 34.0873) (width 0.25) (layer "F.Cu") (net 24) (tstamp 4a4bb88d-eb7f-4f94-b5bb-476800c8ca4a))\u000d\u000a  (segment (start 79.520372 34.0873) (end 81.323272 34.0873) (width 0.25) (layer "F.Cu") (net 24) (tstamp a2433216-b45a-40a6-bfcc-efbce5d81246))\u000d\u000a  (segment (start 85.590972 29.8196) (end 81.323272 34.0873) (width 0.25) (layer "B.Cu") (net 24) (tstamp 67f23e54-7e22-4dc3-9a0e-3368acb09488))\u000d\u000a  (segment (start 86.122072 29.8196) (end 85.590972 29.8196) (width 0.25) (layer "B.Cu") (net 24) (tstamp e468c1e3-ea8e-4f18-8719-b4539e5fb8b7))\u000d\u000a  (segment (start 86.402772 34.0873) (end 88.943272 34.0873) (width 0.25) (layer "F.Cu") (net 25) (tstamp 1b0821b9-4428-4bf8-9e01-2267b616a894))\u000d\u000a  (segment (start 81.809771 35.261811) (end 81.831272 35.24031) (width 0.25) (layer "F.Cu") (net 25) (tstamp 792e8545-7be7-46bb-89cc-21c755250470))\u000d\u000a  (segment (start 85.249762 35.24031) (end 86.402772 34.0873) (width 0.25) (layer "F.Cu") (net 25) (tstamp a87dd78f-a985-4a5a-a713-a7a8730f3d83))\u000d\u000a  (segment (start 78.859972 34.0873) (end 80.034483 35.261811) (width 0.25) (layer "F.Cu") (net 25) (tstamp e3477dbf-7b8a-4395-8767-c4e556e4da4b))\u000d\u000a  (segment (start 77.640772 34.0873) (end 78.859972 34.0873) (width 0.25) (layer "F.Cu") (net 25) (tstamp e6215b72-ce37-4bc7-8011-c39d699f2039))\u000d\u000a  (segment (start 80.034483 35.261811) (end 81.809771 35.261811) (width 0.25) (layer "F.Cu") (net 25) (tstamp e8edad13-d7a0-4540-a1d4-9e1fb4f6fb41))\u000d\u000a  (segment (start 81.831272 35.24031) (end 85.249762 35.24031) (width 0.25) (layer "F.Cu") (net 25) (tstamp fa2033cf-222b-42ff-a7bd-9211240843f5))\u000d\u000a  (segment (start 76.466261 32.912789) (end 77.640772 34.0873) (width 0.25) (layer "B.Cu") (net 25) (tstamp 5df6cb33-a281-440f-823a-598cb685d749))\u000d\u000a  (segment (start 77.112483 22.752789) (end 76.466261 23.399011) (width 0.25) (layer "B.Cu") (net 25) (tstamp 6099f984-f266-4799-8527-54503145c3af))\u000d\u000a  (segment (start 86.122072 24.7396) (end 85.696 24.7396) (width 0.25) (layer "B.Cu") (net 25) (tstamp 7c485cfa-b296-4bca-8b8b-4a98d5444122))\u000d\u000a  (segment (start 76.466261 23.399011) (end 76.466261 32.912789) (width 0.25) (layer "B.Cu") (net 25) (tstamp 8cf8c1af-bfdc-43dd-b0bb-412bed109e1f))\u000d\u000a  (segment (start 83.709189 22.752789) (end 77.112483 22.752789) (width 0.25) (layer "B.Cu") (net 25) (tstamp 94e40168-a553-4e25-8498-6df2a2f65ed4))\u000d\u000a  (segment (start 85.696 24.7396) (end 83.709189 22.752789) (width 0.25) (layer "B.Cu") (net 25) (tstamp f8288fbb-e8a8-4eb9-ba9a-3cb5dc7ebdc8))\u000d\u000a  (segment (start 85.101261 32.721811) (end 86.275772 31.5473) (width 0.25) (layer "F.Cu") (net 26) (tstamp 2433beff-13d1-4508-8a42-8649eae1c958))\u000d\u000a  (segment (start 78.815283 32.721811) (end 85.101261 32.721811) (width 0.25) (layer "F.Cu") (net 26) (tstamp 3da58c87-b9c3-46e7-a4f9-83b780822efc))\u000d\u000a  (segment (start 86.275772 31.5473) (end 88.943272 31.5473) (width 0.25) (layer "F.Cu") (net 26) (tstamp db81fb71-d4d7-4142-93e1-11846e01355f))\u000d\u000a  (segment (start 77.640772 31.5473) (end 78.815283 32.721811) (width 0.25) (layer "F.Cu") (net 26) (tstamp dcd10a87-71fb-4486-ba0d-765d52e99be9))\u000d\u000a  (segment (start 86.675261 27.832789) (end 89.429771 27.832789) (width 0.25) (layer "B.Cu") (net 26) (tstamp 173e3b52-0067-40bd-b99f-9a3e9715c33c))\u000d\u000a  (segment (start 90.117783 30.372789) (end 88.943272 31.5473) (width 0.25) (layer "B.Cu") (net 26) (tstamp 39251744-6e00-4b50-9d37-4e5360f988b3))\u000d\u000a  (segment (start 90.117783 28.520801) (end 90.117783 30.372789) (width 0.25) (layer "B.Cu") (net 26) (tstamp a8f06bd1-105e-4485-afb6-c1ffe0c56c41))\u000d\u000a  (segment (start 86.122072 27.2796) (end 86.675261 27.832789) (width 0.25) (layer "B.Cu") (net 26) (tstamp cef5dd81-18db-4190-9b2a-7a6985fb9647))\u000d\u000a  (segment (start 89.429771 27.832789) (end 90.117783 28.520801) (width 0.25) (layer "B.Cu") (net 26) (tstamp e4218e50-9ee7-4749-8e45-c458924b3b8e))\u000d\u000a  (segment (start 77.640772 26.4673) (end 78.842853 26.4673) (width 0.25) (layer "F.Cu") (net 27) (tstamp 239ba5d9-a1e7-472b-9463-5fd60ba27aec))\u000d\u000a  (segment (start 78.842853 26.4673) (end 80.208342 25.101811) (width 0.25) (layer "F.Cu") (net 27) (tstamp 315b4fca-3370-4854-a18f-e38da14b8fa2))\u000d\u000a  (segment (start 80.208342 25.101811) (end 87.577783 25.101811) (width 0.25) (layer "F.Cu") (net 27) (tstamp 5b3751fc-b2ac-4244-a3d4-10dc18be0cb7))\u000d\u000a  (segment (start 87.577783 25.101811) (end 88.943272 26.4673) (width 0.25) (layer "F.Cu") (net 27) (tstamp df2a3f50-6f93-46c6-98d4-a3b14c8f843a))\u000d\u000a  (segment (start 88.456773 22.752789) (end 89.471061 22.752789) (width 0.25) (layer "B.Cu") (net 27) (tstamp 28b28300-8368-4995-a008-c721c01ef67e))\u000d\u000a  (segment (start 86.122072 23.4696) (end 87.739962 23.4696) (width 0.25) (layer "B.Cu") (net 27) (tstamp 29ed59d4-aa3c-4859-86d0-a044d73d2b09))\u000d\u000a  (segment (start 87.739962 23.4696) (end 88.456773 22.752789) (width 0.25) (layer "B.Cu") (net 27) (tstamp 40a0af81-9264-410c-a543-e6df9a980964))\u000d\u000a  (segment (start 89.471061 22.752789) (end 90.162472 23.4442) (width 0.25) (layer "B.Cu") (net 27) (tstamp 6d0978c6-9f72-4a06-a147-fb1b45fa93dc))\u000d\u000a  (segment (start 90.162472 25.2481) (end 88.943272 26.4673) (width 0.25) (layer "B.Cu") (net 27) (tstamp 7eb5aec2-3cd4-488e-9bc6-d26f145ba4cf))\u000d\u000a  (segment (start 90.162472 23.4442) (end 90.162472 25.2481) (width 0.25) (layer "B.Cu") (net 27) (tstamp b943e1ab-dbee-4dc2-b0de-c51b20560a9a))\u000d\u000a  (segment (start 87.768761 22.752789) (end 88.943272 23.9273) (width 0.25) (layer "F.Cu") (net 28) (tstamp 10fdd6a1-f345-4f5c-8230-8ff1b223afc2))\u000d\u000a  (segment (start 78.815283 22.752789) (end 87.768761 22.752789) (width 0.25) (layer "F.Cu") (net 28) (tstamp 457cd41c-f5d0-4b8e-bd41-ffbc7aa01bc8))\u000d\u000a  (segment (start 77.640772 23.9273) (end 78.815283 22.752789) (width 0.25) (layer "F.Cu") (net 28) (tstamp fd728449-6ba6-4dc2-8fae-71310c1e2704))\u000d\u000a  (segment (start 86.860972 26.0096) (end 88.943272 23.9273) (width 0.25) (layer "B.Cu") (net 28) (tstamp 5ee99c0e-0a7a-4b42-8358-f17b71473931))\u000d\u000a  (segment (start 86.122072 26.0096) (end 86.860972 26.0096) (width 0.25) (layer "B.Cu") (net 28) (tstamp 641a3874-3ec0-436b-a828-649d6350584c))\u000d\u000a\u000d\u000a)\u000d\u000a
p4
Vd4db4c04da615ee35421d266364effa3
p5
(dp6
V77825D2C-FA22-40BA-968B-C896E14EF72E
p7
(lp8
VLED_Display_Module2
p9
aVLED_Display_Module.kicad_sch
p10
asV6025DC9F-5035-4941-A342-733B756AC746
p11
(lp12
VLED_Display_Module
p13
aVLED_Display_Module.kicad_sch
p14
asV0AE7D831-A065-4601-9F9D-C26D40FD3D00
p15
(lp16
VLED_Display_Module1
p17
aVLED_Display_Module.kicad_sch
p18
as(lp19
VNet-(R7-Pad2)
p20
aVNet-(C3-Pad1)
p21
aVNet-(U6-Pad1)
p22
aVNet-(U6-Pad2)
p23
aVNet-(Q4-Pad2)
p24
aVNet-(U6-Pad4)
p25
aVNet-(U6-Pad5)
p26
aVNet-(U6-Pad6)
p27
aVNet-(U6-Pad7)
p28
aVNet-(U6-Pad9)
p29
aVNet-(U6-Pad10)
p30
aVNet-(R10-Pad1)
p31
aVNet-(Q3-Pad2)
p32
aVNet-(Q4-Pad1)
p33
aVNet-(U10-Pad1)
p34
aVNet-(U10-Pad2)
p35
aVNet-(U10-Pad4)
p36
aVNet-(U10-Pad5)
p37
aVNet-(U10-Pad6)
p38
aVNet-(U10-Pad7)
p39
aVNet-(U10-Pad9)
p40
aVNet-(U10-Pad10)
p41
aVNet-(R9-Pad2)
p42
aVNet-(Q3-Pad1)
p43
ag18
(lp44
g18
aI2
tp45
tp46
Rp47
.